(dp0
S'1,800'
p1
I128919
sS'four'
p2
I130857
sS'Does'
p3
I116373
sS'hanging'
p4
I130248
sS'deport'
p5
I113463
sS'aggression'
p6
I122650
sS'looking'
p7
I129280
sS'unblocked'
p8
I77636
sS'electricity'
p9
I120199
sS'quadruple'
p10
I2092
sS'Ronald'
p11
I122752
sS'Frankly'
p12
I111517
sS'1,113'
p13
I123519
sS'regional'
p14
I121586
sS'unify'
p15
I124398
sS'bringing'
p16
I104415
sS'can\xdb\xaat'
p17
I40330
sS'Paul'
p18
I86141
sS'charter'
p19
I42545
sS'tired'
p20
I64386
sS'mail'
p21
I60495
sS'second'
p22
I125502
sS'276'
p23
I123485
sS'Honorable'
p24
I75474
sS'sailed'
p25
I98874
sS'ruthless'
p26
I99548
sS'contributed'
p27
I26645
sS'fingers'
p28
I83650
sS'Wrong'
p29
I55424
sS'College'
p30
I86484
sS'H1B'
p31
I42122
sS'hero'
p32
I61934
sS'reporter'
p33
I75661
sS'interrupting'
p34
I11838
sS'Budget'
p35
I24390
sS'here'
p36
I133305
sS'reported'
p37
I111391
sS'auctioned'
p38
I103164
sS'hers'
p39
I63051
sS'kids'
p40
I108755
sS'reports'
p41
I93692
sS'military'
p42
I124077
sS'criticism'
p43
I55880
sS'divide'
p44
I118299
sS'classification'
p45
I123817
sS'Three'
p46
I129678
sS'replace'
p47
I121296
sS'brought'
p48
I126190
sS'Syrians'
p49
I85083
sS'unit'
p50
I33083
sS'modernizing'
p51
I123673
sS'Casey'
p52
I114986
sS'spoke'
p53
I56238
sS'therefore'
p54
I84200
sS'strike'
p55
I57105
sS'until'
p56
I120944
sS'paperwork'
p57
I114491
sS'successful'
p58
I130484
sS'brings'
p59
I103791
sS'9%'
p60
I24427
sS'Rule'
p61
I120154
sS'hurt'
p62
I95805
sS'98'
p63
I39635
sS'Emerson'
p64
I86483
sS'90'
p65
I111107
sS'midst'
p66
I122447
sS'92'
p67
I118094
sS'97'
p68
I37652
sS'circumstances'
p69
I118752
sS'morally'
p70
I126941
sS'locked'
p71
I126468
sS'accomplishment'
p72
I106278
sS'plunged'
p73
I130892
sS'rulings'
p74
I108237
sS'locker'
p75
I59522
sS'masterminds'
p76
I12983
sS'revenues'
p77
I123323
sS'example'
p78
I133311
sS'triple'
p79
I113408
sS'Lo'
p80
I128879
sS'household'
p81
I120095
sS'currency'
p82
I120867
sS'Lt'
p83
I75488
sS'want'
p84
I133076
sS'make--'
p85
I26018
sS'absolute'
p86
I129981
sS'unpaid'
p87
I123124
sS'complaining'
p88
I63314
sS'travel'
p89
I121431
sS'damage'
p90
I120790
sS'revisit'
p91
I116615
sS'machine'
p92
I129421
sS'how'
p93
I133011
sS'hot'
p94
I37918
sS'A'
p95
I128060
sS'beauty'
p96
I103784
sS'saying--'
p97
I26191
sS'shores'
p98
I121522
sS'wrong'
p99
I130056
sS'effective'
p100
I114365
sS'wins'
p101
I99811
sS'18th'
p102
I34982
sS'Another'
p103
I127634
sS'keeps'
p104
I115193
sS'wind'
p105
I66884
sS'Even'
p106
I131747
sS'concurrence'
p107
I35839
sS'Decades'
p108
I107255
sS'His'
p109
I59591
sS'fit'
p110
I104196
sS'lifeline'
p111
I133200
sS'screaming'
p112
I79911
sS'fix'
p113
I132768
sS'warfighting'
p114
I121636
sS'admirable'
p115
I118861
sS'easier'
p116
I101176
sS'enrich'
p117
I126441
sS'schools'
p118
I130899
sS'represents'
p119
I126105
sS'dumps'
p120
I44139
sS'Millions'
p121
I133173
sS'financial'
p122
I129221
sS'garment'
p123
I35740
sS'250,000'
p124
I9618
sS'Phares'
p125
I75431
sS'substantially'
p126
I103669
sS'self-'
p127
I116284
sS'won'
p128
I119040
sS'Blitzer'
p129
I53825
sS're'
p130
I66830
sS'encourage'
p131
I88609
sS'millions'
p132
I130795
sS'Super'
p133
I40639
sS'misrepresentations'
p134
I58190
sS'foundation'
p135
I123631
sS'stamping'
p136
I106971
sS'assured'
p137
I105467
sS'University'
p138
I87111
sS'threatened'
p139
I123610
sS'fugitive'
p140
I104676
sS'sheet'
p141
I62985
sS'sensors'
p142
I112433
sS'enormous'
p143
I120466
sS'exposing'
p144
I127184
sS'moment'
p145
I129914
sS'defective'
p146
I48673
sS'loudness'
p147
I46653
sS'repealed'
p148
I61268
sS'crossings'
p149
I117053
sS'Voter'
p150
I33944
sS'17%'
p151
I104436
sS'Please'
p152
I86789
sS'Due'
p153
I114937
sS'channels'
p154
I21906
sS'wash'
p155
I122182
sS'instruct'
p156
I120882
sS'service'
p157
I124287
sS'lawsuits'
p158
I28605
sS'returns'
p159
I63111
sS'needed'
p160
I123511
sS'master'
p161
I91033
sS'legs'
p162
I82919
sS'listen'
p163
I126498
sS'collapse'
p164
I38674
sS'predictable'
p165
I81992
sS'legally'
p166
I116556
sS'Beautiful'
p167
I128666
sS'peril'
p168
I85534
sS'showed'
p169
I84335
sS'morphed'
p170
I61999
sS'tree'
p171
I44129
sS'nations'
p172
I129178
sS'project'
p173
I124660
sS'feeling'
p174
I101984
sS'Chicago'
p175
I131030
sS'runner'
p176
I15337
sS'corny'
p177
I131879
sS'tale'
p178
I127636
sS'Then'
p179
I127644
sS'responsible'
p180
I126288
sS'recommended'
p181
I123475
sS'causing'
p182
I120787
sS'They'
p183
I132514
sS'Bank'
p184
I91983
sS'Jones'
p185
I59775
sS'committing'
p186
I106034
sS'transactions'
p187
I108308
sS'thrilled'
p188
I131229
sS'looming'
p189
I85209
sS'simplify'
p190
I119489
sS'blackmailed'
p191
I122577
sS'letter'
p192
I122259
sS'Typical'
p193
I50430
sS'released'
p194
I128655
sS'spend'
p195
I123277
sS'came'
p196
I128669
sS'saying'
p197
I132990
sS'bomb'
p198
I21920
sS'braggadocios'
p199
I51477
sS'meetings'
p200
I125228
sS'Agency'
p201
I66803
sS'sexist'
p202
I126932
sS'Congressional'
p203
I129825
sS'694'
p204
I50753
sS'headline'
p205
I127947
sS'bust'
p206
I125511
sS'appreciated'
p207
I125699
sS'theme'
p208
I98107
sS'rich'
p209
I118601
sS'Wealthy'
p210
I121528
sS'outsmarted'
p211
I69583
sS'D.C.'
p212
I85341
sS'Nevertheless'
p213
I129091
sS'lenders'
p214
I1273
sS'altogether'
p215
I2318
sS'Colorado'
p216
I93720
sS'autistic'
p217
I7299
sS'nicely'
p218
I41505
sS'piggy'
p219
I47976
sS'release'
p220
I115200
sS'respond'
p221
I84387
sS'blew'
p222
I11378
sS'mandatory'
p223
I113312
sS'disaster'
p224
I113871
sS'fair'
p225
I111814
sS'deemed'
p226
I126930
sS'bled'
p227
I126181
sS'Anderson'
p228
I66128
sS'result'
p229
I117460
sS'fail'
p230
I128720
sS'John'
p231
I96647
sS'hammer'
p232
I127086
sS'best'
p233
I131744
sS'for\xe2\x80\x93'
p234
I81019
sS'for\xe2\x80\x94'
p235
I78094
sS'lots'
p236
I131334
sS'he--'
p237
I26422
sS'stamps'
p238
I115830
sS'score'
p239
I121043
sS'scorn'
p240
I118813
sS'Bibi'
p241
I57427
sS'men'
p242
I129779
sS'Lindsey'
p243
I23854
sS'extent'
p244
I115692
sS'carbon'
p245
I45382
sS'debt'
p246
I130410
sS'disdain'
p247
I118815
sS'country'
p248
I131445
sS'demanded'
p249
I127480
sS'logic'
p250
I127297
sS'asked'
p251
I132672
sS'and'
p252
I133413
sS'irresponsible'
p253
I106502
sS'2nd'
p254
I122796
sS'gleaming'
p255
I118352
sS'250'
p256
I66615
sS'256'
p257
I123192
sS'Sitting'
p258
I81103
sS'union'
p259
I123757
sS'.'
p260
I133420
sS'bothers'
p261
I55646
sS'much'
p262
I133408
sS'stadium'
p263
I25449
sS'privilege'
p264
I34273
sS'incompetent'
p265
I129304
sS'deportations'
p266
I113267
sS'life'
p267
I133275
sS'homeland'
p268
I123607
sS'worker'
p269
I131422
sS'places'
p270
I132961
sS'lift'
p271
I120319
sS'child'
p272
I131240
sS'worked'
p273
I133192
sS'spin'
p274
I104355
sS'presidency'
p275
I107982
sS'contingencies'
p276
I123455
sS'employ'
p277
I28791
sS'played'
p278
I98746
sS'Responsible'
p279
I24388
sS'campaigning'
p280
I129336
sS'Valley'
p281
I37429
sS'things'
p282
I133025
sS'Oh'
p283
I132575
sS'Importantly'
p284
I117094
sS'split'
p285
I86549
sS'babies'
p286
I103781
sS'fairly'
p287
I106211
sS'Tapes'
p288
I37991
sS'Maybe'
p289
I113457
sS'workforce'
p290
I123149
sS'\xe2\x80\x93they'
p291
I81604
sS'tune'
p292
I39299
sS'subpoena'
p293
I122215
sS'corporate'
p294
I132268
sS'opinions'
p295
I113275
sS'Thank'
p296
I133418
sS'distribute'
p297
I14145
sS'financially'
p298
I116283
sS'rushing'
p299
I121518
sS'previous'
p300
I116160
sS'Russians'
p301
I102900
sS'had'
p302
I131584
sS'Connecticut'
p303
I114992
sS'innocent'
p304
I110746
sS'prison'
p305
I93736
sS'has'
p306
I133022
sS'municipal'
p307
I46697
sS'survival'
p308
I128319
sS'possible'
p309
I133330
sS'possibly'
p310
I111364
sS'gridlock'
p311
I47714
sS'birth'
p312
I68185
sS'Missouri'
p313
I106360
sS'imposed'
p314
I120023
sS'massively'
p315
I70387
sS'remind'
p316
I117587
sS'steps'
p317
I120706
sS'Pentagon'
p318
I89080
sS'Warren'
p319
I63858
sS'attorney'
p320
I72964
sS'right'
p321
I132429
sS'old'
p322
I131492
sS'crowd'
p323
I131867
sS'people'
p324
I133189
sS'mosques'
p325
I89046
sS'Soros'
p326
I72402
sS'Eminent'
p327
I21073
sS'Whatever'
p328
I73093
sS'Between'
p329
I120471
sS'enemies'
p330
I123986
sS'for'
p331
I133201
sS'bottom'
p332
I17885
sS'continue'
p333
I129909
sS'Facebook'
p334
I66281
sS'Keith'
p335
I75491
sS'Royce'
p336
I8334
sS'defensive'
p337
I123886
sS'losing'
p338
I117302
sS'brokerage'
p339
I83175
sS'manufacturing'
p340
I120652
sS'Think'
p341
I127784
sS'First'
p342
I124949
sS'dollars'
p343
I133175
sS'citizens'
p344
I130919
sS'slightly'
p345
I83902
sS'raised'
p346
I133178
sS'statements'
p347
I127527
sS'seen--'
p348
I25229
sS'marshall'
p349
I44788
sS'Scotland'
p350
I583
sS'son'
p351
I99370
sS'Clintons'
p352
I128753
sS'attrition'
p353
I123150
sS'Korean'
p354
I91851
sS'reducing'
p355
I48249
sS'ISIS'
p356
I130842
sS'troops--'
p357
I23953
sS'support'
p358
I133180
sS'constantly'
p359
I111733
sS'raped'
p360
I59702
sS'authorized'
p361
I123180
sS'resulted'
p362
I113706
sS'overhang'
p363
I16367
sS'happy'
p364
I131223
sS'manufacturers'
p365
I119908
sS'talents'
p366
I97911
sS'handily'
p367
I22926
sS'inside'
p368
I114220
sS'panels'
p369
I48990
sS'150'
p370
I122548
sS'later'
p371
I87360
sS'liberal'
p372
I117781
sS'Six'
p373
I127373
sS'Josh'
p374
I22719
sS'proven'
p375
I132132
sS'Accountability'
p376
I111210
sS'exist'
p377
I126019
sS'negotiations'
p378
I75836
sS'Francisco'
p379
I111061
sS'floor'
p380
I36915
sS'Possibly'
p381
I96950
sS'role'
p382
I76830
sS'ambitious'
p383
I81416
sS'smell'
p384
I17317
sS"'s"
p385
I131022
sS'modern-'
p386
I133355
sS"'d"
p387
I130459
sS'invested'
p388
I66570
sS'rolling'
p389
I70423
sS"'m"
p390
I130177
sS'glass'
p391
I128067
sS'Charles'
p392
I82335
sS'time'
p393
I133322
sS'push'
p394
I72025
sS'overturned'
p395
I67952
sS'renegotiating'
p396
I108404
sS'chain'
p397
I131074
sS'whoever'
p398
I99366
sS'Buffett'
p399
I72391
sS'Indiana'
p400
I106265
sS'vet'
p401
I96841
sS'hold'
p402
I125990
sS'are--'
p403
I23945
sS'carpenters'
p404
I109449
sS'crated'
p405
I87340
sS'Believe'
p406
I130908
sS'veterans'
p407
I130755
sS'paychecks'
p408
I118697
sS'we\xdb\xaave'
p409
I34910
sS'consolidation'
p410
I22470
sS'choice'
p411
I132229
sS'embark'
p412
I124657
sS'fullest'
p413
I124550
sS'exact'
p414
I132528
sS'VAT'
p415
I48527
sS'Rand'
p416
I6772
sS'18-month'
p417
I124637
sS'Tax'
p418
I119756
sS'leave'
p419
I116020
sS'solved'
p420
I84149
sS'settle'
p421
I124772
sS'team'
p422
I132378
sS'prevent'
p423
I122677
sS'xenophobe'
p424
I126938
sS'prediction'
p425
I120642
sS'sign'
p426
I108974
sS'chopping'
p427
I58906
sS'melt'
p428
I32821
sS'current'
p429
I123514
sS'Cruz'
p430
I88914
sS'falling'
p431
I104907
sS'crashing'
p432
I50536
sS'True'
p433
I132445
sS'address'
p434
I132617
sS'alone'
p435
I120959
sS'along'
p436
I124852
sS'dwindling'
p437
I118593
sS'My'
p438
I132521
sS'molestation'
p439
I115301
sS'enroll'
p440
I119728
sS'redemption'
p441
I118850
sS'restrictive'
p442
I113256
sS'brilliant'
p443
I83242
sS'impacted'
p444
I112306
sS'studied'
p445
I87193
sS'wherever'
p446
I16620
sS'accomplished'
p447
I123080
sS'crumbled'
p448
I120655
sS'reclaim'
p449
I126145
sS'Congressmen'
p450
I43389
sS'182,000'
p451
I122841
sS'love'
p452
I130587
sS'raiding'
p453
I131401
sS'working'
p454
I132758
sS'positive'
p455
I116173
sS'angry'
p456
I132867
sS'predictions'
p457
I81377
sS'Hello'
p458
I92075
sS'opposed'
p459
I105563
sS'wondering'
p460
I89868
sS'Worst'
p461
I122590
sS'prosecutor'
p462
I60354
sS'loving'
p463
I21022
sS'introducing'
p464
I110825
sS'afford'
p465
I104339
sS'assimilation'
p466
I116185
sS'Doubled'
p467
I114577
sS'goods'
p468
I18380
sS'everywhere'
p469
I46204
sS'easiest'
p470
I88181
sS'behalf'
p471
I117763
sS'valued'
p472
I18786
sS'originally'
p473
I101017
sS'abortion'
p474
I92475
sS'believer'
p475
I98623
sS'believes'
p476
I132832
sS'values'
p477
I121935
sS'believed'
p478
I125423
sS'Our'
p479
I131424
sS'Out'
p480
I1086
sS'Federal'
p481
I112245
sS'awesome'
p482
I109172
sS'allowed'
p483
I130294
sS'230'
p484
I119350
sS'agendas'
p485
I105801
sS'divided'
p486
I133292
sS'Who'
p487
I133359
sS'immune'
p488
I114049
sS'Why'
p489
I128075
sS'date'
p490
I116622
sS'such'
p491
I127107
sS'truly'
p492
I130723
sS'data'
p493
I114188
sS'shockingly'
p494
I119291
sS'natural'
p495
I66928
sS'Flexibility'
p496
I101241
sS'truck'
p497
I61244
sS'pulled'
p498
I81901
sS'se'
p499
I110113
sS'Islam'
p500
I114809
sS'years'
p501
I133124
sS'professors'
p502
I16520
sS'hiring'
p503
I90226
sS'Walid'
p504
I75430
sS'overhaul'
p505
I119196
sS'torn'
p506
I52457
sS'stupidity'
p507
I73162
sS'Hispanics'
p508
I84651
sS'bipartisan'
p509
I123478
sS'decades'
p510
I120385
sS'abusive'
p511
I79909
sS'recipients'
p512
I125411
sS'civilian'
p513
I124094
sS'smarter'
p514
I91045
sS'nation'
p515
I133397
sS'records'
p516
I122208
sS'compelled'
p517
I120115
sS'reckoning'
p518
I129916
sS'maintaining'
p519
I5000
sS'amnesty'
p520
I117431
sS'quarter'
p521
I119224
sS'square'
p522
I60029
sS'beloved'
p523
I130767
sS'sponsor'
p524
I122604
sS'entering'
p525
I117297
sS'sexually'
p526
I111170
sS'disasters'
p527
I115996
sS'Deborah'
p528
I60075
sS'Elizabeth'
p529
I124992
sS'devaluing'
p530
I47938
sS'Michigan'
p531
I126340
sS'replacing'
p532
I125934
sS'seriously'
p533
I114005
sS'protections'
p534
I103809
sS'trauma'
p535
I67518
sS'Joe'
p536
I79952
sS'internet'
p537
I123994
sS'suggesting'
p538
I6434
sS'plotting'
p539
I88963
sS'siege'
p540
I67454
sS'million'
p541
I133226
sS'incentives'
p542
I77284
sS'quite'
p543
I132095
sS'disrespect'
p544
I54257
sS'complicated'
p545
I110454
sS'Either'
p546
I94921
sS'intensely'
p547
I42703
sS'seventy'
p548
I119264
sS'modest'
p549
I131727
sS'massive'
p550
I127384
sS'saving'
p551
I36275
sS'spoken'
p552
I64762
sS'one'
p553
I132843
sS'vote'
p554
I131327
sS'open'
p555
I121014
sS'ripping'
p556
I95430
sS'city'
p557
I131150
sS'Monday'
p558
I107299
sS'bite'
p559
I28371
sS'2'
p560
I128660
sS'convene'
p561
I96288
sS'Repeal'
p562
I74950
sS'ridiculous'
p563
I127635
sS'History'
p564
I122655
sS'favors'
p565
I106072
sS'Lester'
p566
I58199
sS'future'
p567
I131456
sS'cavalier'
p568
I57008
sS'Fraternal'
p569
I52348
sS'nicer'
p570
I95686
sS'turned'
p571
I128913
sS'argument'
p572
I52764
sS'sad'
p573
I129656
sS'say'
p574
I132479
sS'saw'
p575
I128552
sS'sat'
p576
I129692
sS'MacArthur'
p577
I73150
sS'fashionable'
p578
I14186
sS'Jewish'
p579
I45206
sS'warriors'
p580
I82915
sS'note'
p581
I133059
sS'fictitious'
p582
I94398
sS'take'
p583
I130191
sS'Half'
p584
I19406
sS'wanting'
p585
I128145
sS'jobwise'
p586
I59397
sS'opposite'
p587
I128284
sS'knew'
p588
I130099
sS'counterpuncher'
p589
I84426
sS'printed'
p590
I97601
sS'remarks'
p591
I127451
sS'pages'
p592
I108318
sS'average'
p593
I122891
sS'drive'
p594
I49636
sS'defeating'
p595
I130841
sS'ways'
p596
I133291
sS'30,000'
p597
I95955
sS'laws'
p598
I123823
sS'walking'
p599
I90583
sS'surplus'
p600
I116962
sS'senators'
p601
I80313
sS'merit'
p602
I116364
sS'bright'
p603
I131449
sS'surgically'
p604
I20164
sS'aggressive'
p605
I122074
sS'We\xdb\xaall'
p606
I40080
sS'slow'
p607
I118586
sS'robo'
p608
I25563
sS'tears'
p609
I102085
sS'going'
p610
I133098
sS'congressional'
p611
I125407
sS'dispute'
p612
I127305
sS'Schmitz'
p613
I75476
sS'battalions'
p614
I123440
sS'Magazine'
p615
I127652
sS'Having'
p616
I85353
sS'prime'
p617
I27214
sS'artist'
p618
I40288
sS'assimilate'
p619
I110699
sS"goin'"
p620
I24529
sS'Manchester'
p621
I23236
sS'bombs'
p622
I88746
sS'where'
p623
I132965
sS'vision'
p624
I107928
sS'Specifically'
p625
I100952
sS'gangster'
p626
I3973
sS'That'
p627
I133038
sS"O'Neil"
p628
I22098
sS'representatives'
p629
I107331
sS'vaccines'
p630
I7313
sS'jobs'
p631
I131404
sS'45-day'
p632
I31567
sS'screen'
p633
I122006
sS'awards'
p634
I32729
sS'jets'
p635
I984
sS'concentrated'
p636
I119590
sS'many'
p637
I133290
sS'deduction'
p638
I119690
sS'3,300'
p639
I120067
sS'expression'
p640
I12211
sS'anti'
p641
I133259
sS'radicalized'
p642
I88545
sS'considers'
p643
I118846
sS'caring'
p644
I53986
sS'locally'
p645
I36043
sS'vacation'
p646
I34711
sS'combined'
p647
I124448
sS'wants'
p648
I132209
sS'thousand'
p649
I131840
sS'formed'
p650
I131797
sS'extant'
p651
I77269
sS'Additionally'
p652
I123284
sS'former'
p653
I130084
sS'consultant'
p654
I75468
sS'polls'
p655
I128625
sS'straighten'
p656
I130547
sS'Commander'
p657
I122282
sS'policies'
p658
I130902
sS'newspaper'
p659
I104750
sS'situation'
p660
I105311
sS'endured'
p661
I104941
sS'region'
p662
I121740
sS'engaged'
p663
I127027
sS'technology'
p664
I122177
sS'fame'
p665
I71884
sS'compatriots'
p666
I56394
sS'missiles'
p667
I74354
sS'threatens'
p668
I123858
sS'we\xdb\xaare'
p669
I41343
sS'surveillance'
p670
I112438
sS'sickness'
p671
I129001
sS'I'
p672
I133185
sS'defy'
p673
I127291
sS'IRS'
p674
I50977
sS'streamlining'
p675
I119551
sS'Clean'
p676
I120166
sS'tracking'
p677
I115508
sS'Megyn'
p678
I39312
sS'costs'
p679
I123052
sS'Oww'
p680
I87839
sS'summer'
p681
I113246
sS'being'
p682
I131341
sS'rest'
p683
I132906
sS'Conservative'
p684
I92316
sS'interrupt'
p685
I62044
sS'don\xdb\xaat'
p686
I41712
sS'weekly'
p687
I58748
sS'briefings'
p688
I96595
sS'overthrow'
p689
I74105
sS'WALKER'
p690
I2989
sS'have--'
p691
I24788
sS'Approved'
p692
I37773
sS'skies'
p693
I121441
sS'aspects'
p694
I115732
sS'around'
p695
I128328
sS'dark'
p696
I130246
sS'preference'
p697
I102325
sS'vacuum'
p698
I128831
sS'world'
p699
I133402
sS'Belmont'
p700
I125513
sS'Childcare'
p701
I119763
sS'offenders'
p702
I114947
sS'slings'
p703
I129098
sS'obstruct'
p704
I122203
sS'NAFTA'
p705
I121378
sS'India'
p706
I70454
sS'demeaning'
p707
I32630
sS'racial'
p708
I124150
sS'thinks'
p709
I88928
sS'scandals'
p710
I123851
sS'memories'
p711
I133113
sS'exit'
p712
I115339
sS'biased'
p713
I132486
sS'power'
p714
I131345
sS'intimate'
p715
I131853
sS'Expanded'
p716
I119753
sS'iconic'
p717
I12255
sS'leadership'
p718
I110366
sS'standpoint'
p719
I111563
sS'industry'
p720
I120048
sS'Check'
p721
I31864
sS'neighbor'
p722
I75609
sS'act'
p723
I115045
sS'luck'
p724
I131336
sS'No'
p725
I131829
sS'apologize'
p726
I87235
sS'pivot'
p727
I69045
sS'her'
p728
I133018
sS'hey'
p729
I76373
sS'Baton'
p730
I106379
sS'myths'
p731
I104364
sS'bubble'
p732
I76091
sS'complete'
p733
I119195
sS'tailored'
p734
I61038
sS'Harry'
p735
I31633
sS'Small'
p736
I39897
sS'technologies'
p737
I124026
sS'with'
p738
I133119
sS'buying'
p739
I99617
sS'handsome'
p740
I98532
sS'abused'
p741
I113515
sS'pull'
p742
I105655
sS'House'
p743
I125928
sS'abuser'
p744
I10987
sS'abuses'
p745
I120748
sS'politically'
p746
I113109
sS'agree'
p747
I133251
sS'rust'
p748
I99247
sS'regimes'
p749
I121701
sS'detailed'
p750
I120685
sS'gone'
p751
I130230
sS'ad'
p752
I72550
sS'exhausted'
p753
I64390
sS'certain'
p754
I130527
sS'forgot'
p755
I131664
sS'am'
p756
I126269
sS'an'
p757
I133324
sS'How'
p758
I132700
sS'as'
p759
I133400
sS'--said'
p760
I25018
sS'at'
p761
I132868
sS'aw'
p762
I107479
sS'walks'
p763
I5259
sS'watched'
p764
I106544
sS'yoga'
p765
I60538
sS'graduate'
p766
I93234
sS'tight'
p767
I97291
sS'Atlantic'
p768
I85838
sS'disgraceful'
p769
I72983
sS'a-'
p770
I36935
sS'waving'
p771
I30440
sS'brotherhood'
p772
I105249
sS'omnibus'
p773
I82587
sS'having'
p774
I133046
sS'fraudulent'
p775
I33990
sS'Street'
p776
I72560
sS'mass'
p777
I107869
sS'original'
p778
I98280
sS'Canada'
p779
I91348
sS'9/11'
p780
I115538
sS'consider'
p781
I124649
sS'caused'
p782
I105133
sS'instincts'
p783
I105118
sS'Obamacare'
p784
I130835
sS'Caesar'
p785
I8328
sS'welfare'
p786
I121210
sS'causes'
p787
I110860
sS'riots'
p788
I85673
sS'to'
p789
I133390
sS'paying'
p790
I122581
sS'returned'
p791
I130235
sS'PACs'
p792
I47407
sS'detention'
p793
I111910
sS'trillions'
p794
I126588
sS'Wolf'
p795
I53824
sS'condition'
p796
I104915
sS'joined'
p797
I120493
sS'large'
p798
I126317
sS'sang'
p799
I32224
sS'sand'
p800
I73254
sS'small'
p801
I131852
sS'Should'
p802
I126466
sS'past'
p803
I128446
sS'pass'
p804
I126056
sS'Join'
p805
I131439
sS'investment'
p806
I118366
sS'Ferguson'
p807
I106640
sS'method'
p808
I60932
sS'contrast'
p809
I119833
sS'revealing'
p810
I130139
sS'full'
p811
I128282
sS'lobbyist'
p812
I126739
sS'hours'
p813
I125091
sS'smartest'
p814
I109380
sS'language--'
p815
I25020
sS'spine'
p816
I121500
sS'compliance'
p817
I115035
sS'brutal'
p818
I106718
sS'prior'
p819
I129626
sS'you\xdb\xaare'
p820
I41772
sS'social'
p821
I132359
sS'cessation'
p822
I33222
sS"would've"
p823
I127951
sS'smuggle'
p824
I117069
sS'followed'
p825
I116679
sS'enactment'
p826
I108059
sS'Cardinal'
p827
I132606
sS'cynics'
p828
I109664
sS'select'
p829
I116267
sS'barbarism'
p830
I133335
sS'6'
p831
I133225
sS'Russian'
p832
I95466
sS'overstays'
p833
I117056
sS'more'
p834
I133024
sS'door'
p835
I82289
sS'company'
p836
I129946
sS'corrected'
p837
I78594
sS'cunning'
p838
I7902
sS'keeping'
p839
I115723
sS'Tiffany'
p840
I125072
sS'sent'
p841
I128808
sS'evolved'
p842
I82244
sS'learn'
p843
I96676
sS'knocked'
p844
I65038
sS'Your'
p845
I92879
sS'beautiful'
p846
I127674
sS'scam'
p847
I8770
sS'stated'
p848
I129832
sS'lives'
p849
I129871
sS'neglected'
p850
I105714
sS'accept'
p851
I92937
sS'states'
p852
I123566
sS'sense'
p853
I132957
sS'condemn'
p854
I69413
sS'information'
p855
I123830
sS'--whether'
p856
I24961
sS'dismissed'
p857
I108967
sS'plant'
p858
I101618
sS'TransPacific'
p859
I103507
sS'countryside'
p860
I34329
sS'disgraced'
p861
I94741
sS'plane'
p862
I129530
sS'waves'
p863
I116169
sS'Swiss'
p864
I37603
sS'WikiLeaks'
p865
I132826
sS'refuse'
p866
I121786
sS'loud'
p867
I79750
sS'fundamental'
p868
I110467
sS'replied'
p869
I132172
sS'trade'
p870
I130401
sS'attitude'
p871
I13590
sS'paper'
p872
I96471
sS'smiling'
p873
I46940
sS'intelligently'
p874
I45721
sS'its'
p875
I128362
sS'rapidly'
p876
I122813
sS'mistreated'
p877
I103918
sS'ally'
p878
I122363
sS'skipped'
p879
I27715
sS'Bloomberg'
p880
I53437
sS'propose'
p881
I123613
sS'I.'
p882
I132873
sS'Michael'
p883
I113338
sS'sucked'
p884
I70218
sS'always'
p885
I133139
sS'spinning'
p886
I128460
sS'strangling'
p887
I103684
sS'Thanks'
p888
I99743
sS'cratered'
p889
I1401
sS'found'
p890
I132810
sS'Sounds'
p891
I59506
sS'status'
p892
I118625
sS'engendered'
p893
I99582
sS'reduce'
p894
I123203
sS'Rosa'
p895
I7407
sS'police'
p896
I113551
sS'doses'
p897
I7149
sS'operation'
p898
I112766
sS'really'
p899
I133218
sS'blacks'
p900
I118884
sS'TAPPER'
p901
I6600
sS'Report'
p902
I72783
sS'GM</a'
p903
I118171
sS'highway'
p904
I121017
sS'belief'
p905
I132947
sS'risen'
p906
I104523
sS'1920s'
p907
I85409
sS'conditioning'
p908
I101566
sS'imagine'
p909
I114011
sS'Hispanic'
p910
I131157
sS'II'
p911
I122715
sS'testament'
p912
I101995
sS'Doral'
p913
I90351
sS'euphemism'
p914
I98694
sS'major'
p915
I132267
sS'thereafter'
p916
I107061
sS'brutally'
p917
I111095
sS'sequester'
p918
I123042
sS'guess'
p919
I132791
sS'heads'
p920
I132412
sS'leverage'
p921
I124677
sS'threatening'
p922
I113561
sS'zealot'
p923
I29701
sS'Rudy'
p924
I125299
sS'witnessing'
p925
I133370
sS'justly'
p926
I106213
sS'relationship'
p927
I110349
sS"O'Neill"
p928
I47628
sS'interviewed'
p929
I80039
sS'immediate'
p930
I115875
sS'Fast'
p931
I122402
sS'consult'
p932
I22492
sS'rampant'
p933
I42838
sS'disrespected'
p934
I75260
sS'vocal'
p935
I6721
sS'determined'
p936
I126599
sS'remembers'
p937
I87583
sS'fights'
p938
I71559
sS'sell'
p939
I116075
sS'Club'
p940
I37689
sS'extorted'
p941
I122579
sS'self'
p942
I131692
sS'also'
p943
I133250
sS'directives'
p944
I123909
sS'play'
p945
I129590
sS'firsthand'
p946
I128996
sS'swiftly'
p947
I113383
sS'plan'
p948
I124695
sS'accepting'
p949
I3505
sS'understands'
p950
I108331
sS'seize'
p951
I47750
sS'sometimes'
p952
I132100
sS'cover'
p953
I127063
sS'attacking'
p954
I127386
sS'golf'
p955
I129688
sS'gold'
p956
I99824
sS'Had'
p957
I119267
sS'defender'
p958
I40831
sS'degraded'
p959
I123549
sS'Has'
p960
I62272
sS'impact'
p961
I110641
sS'condos'
p962
I92010
sS'writes'
p963
I115266
sS'Muslim'
p964
I105248
sS'failed'
p965
I125936
sS'factor'
p966
I48955
sS'dependent'
p967
I119733
sS'secular'
p968
I122359
sS'preparing'
p969
I127585
sS'closely'
p970
I126484
sS'reporters'
p971
I131278
sS'adhered'
p972
I4562
sS'Minutes'
p973
I80009
sS'enemy'
p974
I96353
sS'cry'
p975
I70661
sS'tanked'
p976
I8172
sS'banking'
p977
I21905
sS'surrendering'
p978
I111847
sS'write-'
p979
I63715
sS'kill'
p980
I72037
sS'insane'
p981
I103695
sS'set'
p982
I116238
sS'For'
p983
I132874
sS'creator'
p984
I48274
sS'overwhelm'
p985
I107875
sS'activists'
p986
I110487
sS'Fox'
p987
I56221
sS'sex'
p988
I66039
sS'see'
p989
I133348
sS'migration'
p990
I103364
sS'sea'
p991
I115418
sS'knees'
p992
I104972
sS'#'
p993
I23984
sS'Towers'
p994
I112435
sS'unrealized'
p995
I118082
sS'currently'
p996
I123271
sS'Sony'
p997
I91828
sS'compliment'
p998
I67228
sS'available'
p999
I117211
sS'targeted'
p1000
I106821
sS'Florida'
p1001
I126653
sS'Against'
p1002
I83047
sS'incident'
p1003
I87585
sS'\xe2\x80\x94every'
p1004
I123753
sS'A\xdb\x9d.'
p1005
I39894
sS'dividend'
p1006
I116849
sS'Honor'
p1007
I125410
sS'legislature'
p1008
I22506
sS'prospects'
p1009
I22526
sS'Neil'
p1010
I56186
sS'thou'
p1011
I54346
sS'barely'
p1012
I126235
sS'let'
p1013
I131046
sS'approve'
p1014
I103499
sS'Teddy'
p1015
I86530
sS'loan'
p1016
I71146
sS'community'
p1017
I133403
sS'coincidence'
p1018
I127162
sS'agents'
p1019
I113574
sS'church'
p1020
I92522
sS'Hussein'
p1021
I82855
sS'belt'
p1022
I99248
sS'worthless'
p1023
I130957
sS'devil'
p1024
I60097
sS'hitting'
p1025
I83957
sS'Scout'
p1026
I66065
sS'Carl'
p1027
I18830
sS'mindset'
p1028
I130528
sS'firm'
p1029
I13257
sS'champion'
p1030
I109846
sS'fire'
p1031
I88276
sS'Polls'
p1032
I15369
sS'fund'
p1033
I126017
sS'Oreos'
p1034
I28332
sS'awake'
p1035
I66175
sS'Saudi'
p1036
I123301
sS'towns'
p1037
I130784
sS'consulate'
p1038
I105048
sS'handling'
p1039
I123827
sS'Old'
p1040
I62934
sS'judicial'
p1041
I109068
sS'expanded'
p1042
I119632
sS'budget'
p1043
I123372
sS'Fighters'
p1044
I82796
sS'pressed'
p1045
I58297
sS'Church'
p1046
I92901
sS'Cold'
p1047
I121889
sS'cages'
p1048
I88008
sS'owed'
p1049
I36491
sS'backing'
p1050
I82840
sS'owes'
p1051
I56949
sS'beautifully'
p1052
I131796
sS'D\xdb\x9d'
p1053
I39827
sS'Stock'
p1054
I24685
sS'funny'
p1055
I92513
sS'choking'
p1056
I55525
sS'O\xe2\x80\x99Donnell'
p1057
I132326
sS'elevated'
p1058
I39891
sS'rules'
p1059
I123818
sS'virtually'
p1060
I129224
sS'2030'
p1061
I120260
sS'affairs'
p1062
I104933
sS'comprehensive'
p1063
I119656
sS'levels'
p1064
I116257
sS'necessity'
p1065
I20776
sS'recent'
p1066
I114149
sS'picks'
p1067
I35102
sS'person'
p1068
I131724
sS'regulating'
p1069
I118574
sS'redistribution'
p1070
I118581
sS'politely'
p1071
I132171
sS'Horribly'
p1072
I61745
sS'arrests'
p1073
I111233
sS'who\xdb\xaas'
p1074
I40260
sS'surprises'
p1075
I128209
sS'admission'
p1076
I54513
sS'swinger'
p1077
I79249
sS'pillars'
p1078
I121944
sS'parents'
p1079
I125059
sS'crying'
p1080
I105788
sS'presidents'
p1081
I43852
sS'relevance'
p1082
I128315
sS'input'
p1083
I112243
sS'Marine'
p1084
I123435
sS'surprised'
p1085
I127464
sS'On'
p1086
I133056
sS'victims'
p1087
I110975
sS'doors'
p1088
I101443
sS'demands'
p1089
I107730
sS'Of'
p1090
I131777
sS'couple'
p1091
I119806
sS'suffering'
p1092
I121982
sS'quest'
p1093
I41579
sS'Or'
p1094
I132801
sS'projects'
p1095
I120423
sS'OK'
p1096
I131671
sS'squandered'
p1097
I51784
sS'pounds'
p1098
I54914
sS'Highly'
p1099
I78727
sS'consensus'
p1100
I25086
sS'communications'
p1101
I123995
sS'individuals'
p1102
I117175
sS'names'
p1103
I111236
sS'sight'
p1104
I19461
sS'curious'
p1105
I66771
sS'religion'
p1106
I92873
sS'behave'
p1107
I45058
sS'prosecuted'
p1108
I97493
sS'be'
p1109
I133377
sS'Look'
p1110
I127847
sS'agreement'
p1111
I122961
sS'nowhere'
p1112
I29514
sS'relating'
p1113
I123824
sS'by'
p1114
I132932
sS'n\xe2\x80\x99t'
p1115
I132985
sS'anything'
p1116
I127115
sS'deserves'
p1117
I131245
sS'Katie'
p1118
I4627
sS'12,000'
p1119
I22685
sS'Shaw'
p1120
I107324
sS'terrorists'
p1121
I129257
sS'hometown'
p1122
I104478
sS'into'
p1123
I132185
sS'appropriate'
p1124
I132103
sS'primarily'
p1125
I11875
sS'contributor'
p1126
I32716
sS'spending'
p1127
I123204
sS'submit'
p1128
I123002
sS'thirdly'
p1129
I8140
sS'suit'
p1130
I78394
sS'walls'
p1131
I128068
sS':'
p1132
I132622
sS'relaxed'
p1133
I34170
sS'archaic'
p1134
I116626
sS'line'
p1135
I126593
sS'hacks'
p1136
I74722
sS'GDP'
p1137
I129349
sS'Office'
p1138
I113992
sS'Jeff'
p1139
I125278
sS'Dynamically'
p1140
I7983
sS'up'
p1141
I133257
sS'us'
p1142
I133308
sS'um'
p1143
I84583
sS'slander'
p1144
I127123
sS'un'
p1145
I66321
sS'customers'
p1146
I81498
sS'uh'
p1147
I82717
sS'aerial'
p1148
I112437
sS'likewise'
p1149
I126472
sS'influence'
p1150
I102937
sS'haunt'
p1151
I4144
sS'Parks'
p1152
I7408
sS'Manhattan'
p1153
I81510
sS'thugs'
p1154
I113518
sS'fixing'
p1155
I117318
sS'reimbursed'
p1156
I82396
sS'definitely'
p1157
I126539
sS'actors'
p1158
I4329
sS'sails'
p1159
I21666
sS'elements'
p1160
I62724
sS'sided'
p1161
I58577
sS'sides'
p1162
I80288
sS'ago'
p1163
I127736
sS'lane'
p1164
I100557
sS'land'
p1165
I115412
sS'fighter'
p1166
I123500
sS'age'
p1167
I133325
sS'walked'
p1168
I86546
sS'hello'
p1169
I131555
sS'code'
p1170
I119491
sS'Jim'
p1171
I86126
sS'results'
p1172
I114972
sS'existing'
p1173
I115695
sS'highways'
p1174
I124578
sS'unmatched'
p1175
I129237
sS'seemed'
p1176
I122107
sS'archdiocese'
p1177
I131908
sS'concerned'
p1178
I99797
sS'young'
p1179
I133129
sS'send'
p1180
I132795
sS'Designed'
p1181
I102789
sS'resources'
p1182
I129235
sS'armament'
p1183
I56755
sS'continues'
p1184
I111965
sS'continued'
p1185
I106337
sS'wipe'
p1186
I80813
sS'Ambassador'
p1187
I66206
sS'underleveraged'
p1188
I51453
sS'harbor'
p1189
I65206
sS'experiencing'
p1190
I122371
sS'fewer'
p1191
I104088
sS'try'
p1192
I129052
sS'race'
p1193
I120622
sS'592'
p1194
I122760
sS'pledge'
p1195
I124341
sS'odd'
p1196
I129575
sS'graduating'
p1197
I104645
sS'Janet'
p1198
I50569
sS'directive'
p1199
I120186
sS'expressed'
p1200
I110663
sS'Resources'
p1201
I120336
sS'flowing'
p1202
I108703
sS'firms'
p1203
I54527
sS'proliferation'
p1204
I15086
sS'led'
p1205
I129300
sS'Reince'
p1206
I125569
sS'Freedom'
p1207
I82795
sS'90-day'
p1208
I27257
sS'punch'
p1209
I79191
sS'poverty'
p1210
I130896
sS'consideration'
p1211
I118987
sS'invented'
p1212
I128004
sS'great'
p1213
I133302
sS'   '
p1214
I89726
sS'receive'
p1215
I119841
sS'involved'
p1216
I130678
sS'Energy'
p1217
I123332
sS'casino'
p1218
I5803
sS'disenfranchise'
p1219
I85664
sS'defeat'
p1220
I121813
sS'opinion'
p1221
I100042
sS'residents'
p1222
I114743
sS'makes'
p1223
I132956
sS'maker'
p1224
I28297
sS'involves'
p1225
I126057
sS'Staff'
p1226
I123920
sS'outcomes'
p1227
I105400
sS'dumbest'
p1228
I96535
sS'tools'
p1229
I123618
sS'standing'
p1230
I117495
sS'sadder'
p1231
I77342
sS'certificate'
p1232
I54224
sS'illegal'
p1233
I126172
sS'next'
p1234
I133093
sS'doubt'
p1235
I132088
sS'NATO'
p1236
I123262
sS'intend'
p1237
I120913
sS'sanctions,\xe2\x80\x99'
p1238
I75875
sS'Tribe'
p1239
I16514
sS'conditioners'
p1240
I99620
sS'patrol'
p1241
I121447
sS'Others'
p1242
I128202
sS'occurred'
p1243
I115201
sS'dealings'
p1244
I102794
sS'carrying'
p1245
I102060
sS'baby'
p1246
I68136
sS'gladly'
p1247
I129101
sS'animals'
p1248
I38232
sS'this'
p1249
I133195
sS'challenge'
p1250
I124882
sS'pour'
p1251
I69082
sS'Blasio'
p1252
I131486
sS'weaker'
p1253
I22375
sS'Police'
p1254
I52351
sS'bent'
p1255
I67559
sS'process'
p1256
I123060
sS'high'
p1257
I130491
sS'slip'
p1258
I114846
sS'Christmas'
p1259
I101884
sS'weaken'
p1260
I21873
sS'ideology'
p1261
I106861
sS'Rosie'
p1262
I132338
sS'destroying'
p1263
I128959
sS'delay'
p1264
I23626
sS'establishment'
p1265
I130207
sS'scammed'
p1266
I40464
sS'tied'
p1267
I126487
sS'Q'
p1268
I32249
sS'pigs'
p1269
I79925
sS'ties'
p1270
I32500
sS'upstate'
p1271
I118776
sS'autograph'
p1272
I34104
sS'realized'
p1273
I110396
sS'manpower'
p1274
I112440
sS'counter'
p1275
I75449
sS'One'
p1276
I133151
sS'allow'
p1277
I129268
sS'Catholic'
p1278
I133261
sS'Raise'
p1279
I46853
sS'produces'
p1280
I121715
sS'move'
p1281
I108131
sS'produced'
p1282
I122416
sS'perfect'
p1283
I61313
sS'Secretariat'
p1284
I125504
sS'chosen'
p1285
I133101
sS'104-page'
p1286
I50711
sS'meantime'
p1287
I97716
sS'Doyle'
p1288
I53821
sS'Papadopoulos'
p1289
I75460
sS'2015'
p1290
I120060
sS'hijackers'
p1291
I115539
sS'2017'
p1292
I107765
sS'2011'
p1293
I111205
sS'2010'
p1294
I122901
sS'2013'
p1295
I113066
sS'2012'
p1296
I115281
sS'Dubai'
p1297
I76163
sS'Merit'
p1298
I116366
sS'outlined'
p1299
I119480
sS'kiss'
p1300
I22262
sS'Social'
p1301
I111938
sS'perpetrators'
p1302
I111114
sS'realize'
p1303
I124548
sS'presidential'
p1304
I132012
sS'Solis'
p1305
I53820
sS'spilling'
p1306
I107382
sS'intelligent'
p1307
I89181
sS'Say'
p1308
I125576
sS'truth'
p1309
I131717
sS'rising'
p1310
I118369
sS'Kate'
p1311
I113298
sS'doing'
p1312
I131504
sS'society'
p1313
I129919
sS'intangible'
p1314
I112391
sS'Treasury'
p1315
I120848
sS'differ'
p1316
I37314
sS'tenth'
p1317
I103749
sS'witness'
p1318
I128022
sS"'"
p1319
I108932
sS'Very'
p1320
I131726
sS'shut'
p1321
I120223
sS'Shortly'
p1322
I107060
sS'Spent'
p1323
I23977
sS'Ryan'
p1324
I86142
sS'disintegrating'
p1325
I76411
sS'Canadians'
p1326
I61139
sS'regulatory'
p1327
I119201
sS'embarrass'
p1328
I1130
sS'Spend'
p1329
I24985
sS'could'
p1330
I132681
sS'length'
p1331
I95278
sS'blown'
p1332
I76327
sS'It\xdb\xaas'
p1333
I41679
sS'straining'
p1334
I114141
sS'Program'
p1335
I113135
sS'legislative'
p1336
I117255
sS'Snowden'
p1337
I38556
sS'Iran'
p1338
I128810
sS'system'
p1339
I126876
sS'travelled'
p1340
I118714
sS'Iraq'
p1341
I132221
sS'behaved'
p1342
I45064
sS'painful'
p1343
I130591
sS'interests'
p1344
I131395
sS'enforcement'
p1345
I125683
sS'stars'
p1346
I127765
sS'Roosevelt'
p1347
I86531
sS'Democratic'
p1348
I3238
sS'elite'
p1349
I105604
sS'retraction'
p1350
I127482
sS'steel'
p1351
I121452
sS'Homicides'
p1352
I104431
sS'warfare'
p1353
I121834
sS'egregious'
p1354
I130598
sS'bother'
p1355
I74507
sS'goodnight'
p1356
I109998
sS'202,000'
p1357
I122832
sS'orchestrated'
p1358
I128519
sS'anybody\xdb\xaas'
p1359
I37568
sS'gays'
p1360
I114802
sS'90-year'
p1361
I111087
sS'false'
p1362
I130560
sS'trusting'
p1363
I7589
sS'partnership'
p1364
I125583
sS'tonight'
p1365
I133306
sS'Secret'
p1366
I125678
sS'defending'
p1367
I91651
sS'element'
p1368
I119653
sS'clearly'
p1369
I128511
sS'documents'
p1370
I127183
sS'studying'
p1371
I97720
sS'jurisdictions'
p1372
I113739
sS'mills'
p1373
I120227
sS'dollars\xe2\x80\x99'
p1374
I84465
sS'toughest'
p1375
I67790
sS'worldwide'
p1376
I91207
sS'visa'
p1377
I116604
sS'Somebody'
p1378
I89621
sS'medal'
p1379
I99825
sS'socialistic'
p1380
I6070
sS'stronger'
p1381
I127904
sS'face'
p1382
I113393
sS'Huckabee'
p1383
I125357
sS'wounded'
p1384
I107522
sS'fact'
p1385
I132330
sS'atmosphere'
p1386
I117187
sS'hunker'
p1387
I117072
sS'Paris'
p1388
I84958
sS'terminate'
p1389
I128948
sS'vacancy'
p1390
I66376
sS'bring'
p1391
I131131
sS'Under'
p1392
I123537
sS'rough'
p1393
I131969
sS'Waste'
p1394
I31382
sS'decade'
p1395
I121154
sS'Meanwhile'
p1396
I122068
sS'of--'
p1397
I24792
sS'should'
p1398
I129334
sS'entities'
p1399
I126321
sS'bombings'
p1400
I88964
sS'tape'
p1401
I88262
sS'8,000'
p1402
I119790
sS'Strong'
p1403
I124239
sS'hope'
p1404
I130934
sS'meant'
p1405
I119283
sS'insight'
p1406
I89877
sS'handle'
p1407
I123732
sS'listened'
p1408
I64290
sS'means'
p1409
I126917
sS'Whether'
p1410
I131193
sS'lucky'
p1411
I125054
sS'Keep'
p1412
I89439
sS'defenseless'
p1413
I111111
sS'Once'
p1414
I106710
sS'smash'
p1415
I79176
sS'Because'
p1416
I130156
sS'taxes'
p1417
I123125
sS'stuff'
p1418
I132302
sS'Gilmore'
p1419
I86326
sS'taxed'
p1420
I108526
sS'Afghanistan'
p1421
I132224
sS'Heller'
p1422
I67664
sS'temporarily'
p1423
I17460
sS'catastrophic'
p1424
I61170
sS'C'
p1425
I122261
sS'felons'
p1426
I52793
sS'Paula'
p1427
I59774
sS'destiny'
p1428
I124786
sS'insulting'
p1429
I17358
sS'nuclear'
p1430
I122614
sS'migrations'
p1431
I85081
sS'taunting'
p1432
I95486
sS'injustice'
p1433
I105834
sS'Republican'
p1434
I131644
sS'email'
p1435
I132799
sS'ends'
p1436
I23015
sS'lawsuit'
p1437
I127582
sS'absentee'
p1438
I6609
sS'restrictions'
p1439
I120320
sS'figured'
p1440
I53972
sS'invited'
p1441
I121996
sS'deficits'
p1442
I67010
sS'drug'
p1443
I93619
sS'etc'
p1444
I85244
sS'Autism'
p1445
I7103
sS'adjusted'
p1446
I122937
sS'Her'
p1447
I122288
sS'ca'
p1448
I130809
sS'Hey'
p1449
I97827
sS'crafted'
p1450
I112240
sS'winning'
p1451
I109622
sS'Get'
p1452
I125548
sS'degrees'
p1453
I129576
sS'waste'
p1454
I123088
sS'>'
p1455
I118172
sS'hateful'
p1456
I106859
sS'2014'
p1457
I115133
sS'Slightly'
p1458
I83891
sS'gov--'
p1459
I26323
sS'runway'
p1460
I129534
sS'Number'
p1461
I115878
sS'expiration'
p1462
I115660
sS'rigged'
p1463
I126878
sS'concerted'
p1464
I128293
sS'site'
p1465
I115739
sS'There\xdb\xaas'
p1466
I37972
sS'sits'
p1467
I7996
sS'conserve'
p1468
I21245
sS'Sort'
p1469
I86129
sS'terrorist'
p1470
I106820
sS'Veterans'
p1471
I97127
sS'terrorism'
p1472
I130770
sS'Danny'
p1473
I113343
sS'drink'
p1474
I118226
sS'upon'
p1475
I129134
sS'nationally'
p1476
I128659
sS'proficiency'
p1477
I116371
sS'Greg'
p1478
I101547
sS'expand'
p1479
I123711
sS'audit'
p1480
I63103
sS'35%'
p1481
I119969
sS'7.7%'
p1482
I24425
sS'off'
p1483
I132710
sS'tariffed'
p1484
I18611
sS'350'
p1485
I123718
sS'renegotiated'
p1486
I108400
sS'softening'
p1487
I37535
sS'less'
p1488
I129888
sS'moments'
p1489
I132104
sS'Flynn'
p1490
I125369
sS'generous'
p1491
I124191
sS'day'
p1492
I133356
sS'exempt'
p1493
I123219
sS'scoundrel'
p1494
I131659
sS'Unfortunately'
p1495
I115372
sS'government'
p1496
I133012
sS'taunt'
p1497
I17982
sS'increases'
p1498
I49628
sS'five'
p1499
I130859
sS'supervise'
p1500
I114601
sS'San'
p1501
I111060
sS'forcing'
p1502
I105251
sS'540,000'
p1503
I123390
sS'become'
p1504
I131600
sS'replacement'
p1505
I113918
sS'amendment'
p1506
I121336
sS'flush'
p1507
I122545
sS'devaluations'
p1508
I48433
sS'ballot'
p1509
I86169
sS'Speaking'
p1510
I6930
sS'Barron'
p1511
I125074
sS'literally'
p1512
I103035
sS'avoid'
p1513
I122675
sS'demonstrators'
p1514
I107411
sS'does'
p1515
I121168
sS'passion'
p1516
I46445
sS'deportable'
p1517
I113160
sS'blowing'
p1518
I6374
sS'schedule'
p1519
I76540
sS'Pence'
p1520
I125900
sS'pressure'
p1521
I108858
sS'infiltrating'
p1522
I13757
sS'loans'
p1523
I62960
sS'counties'
p1524
I83031
sS'stage'
p1525
I125028
sS'gained'
p1526
I122484
sS'sister'
p1527
I35527
sS'asks'
p1528
I109850
sS'revise'
p1529
I116613
sS'swimming'
p1530
I30716
sS'letters'
p1531
I128126
sS'Caesars'
p1532
I5806
sS'commitment'
p1533
I103275
sS'screamed'
p1534
I79356
sS'included'
p1535
I57243
sS'roads'
p1536
I121433
sS'crooked'
p1537
I130913
sS'negotiable'
p1538
I51132
sS'terminated'
p1539
I120813
sS'housing'
p1540
I115832
sS'stamina'
p1541
I117402
sS'naturally'
p1542
I68762
sS'interest'
p1543
I126734
sS'Well'
p1544
I101231
sS'Klu'
p1545
I35034
sS'construction'
p1546
I117120
sS'delivers'
p1547
I131205
sS'candidacy'
p1548
I128767
sS'count'
p1549
I122845
sS'behemoth'
p1550
I91790
sS'chained'
p1551
I79857
sS'smooth'
p1552
I77607
sS'placed'
p1553
I112992
sS'convince'
p1554
I40708
sS'distribution'
p1555
I82215
sS'lawlessness'
p1556
I117480
sS'recognize'
p1557
I131884
sS'incensed'
p1558
I79007
sS'rubble'
p1559
I95922
sS'replica'
p1560
I67489
sS'compared'
p1561
I106001
sS'Families'
p1562
I119664
sS'deadly'
p1563
I113017
sS'Yesterday'
p1564
I126651
sS'lately'
p1565
I83177
sS'details'
p1566
I27724
sS'behold'
p1567
I128902
sS'illusion'
p1568
I126853
sS'reckless'
p1569
I122151
sS'repeat'
p1570
I79771
sS'oppression'
p1571
I107242
sS'outlets'
p1572
I127345
sS'chance'
p1573
I132392
sS'repeal'
p1574
I121294
sS'mastermind'
p1575
I12968
sS'Page'
p1576
I75455
sS'South'
p1577
I123298
sS'Examiner'
p1578
I122036
sS'Corps'
p1579
I123436
sS'rule'
p1580
I131392
sS'rigging'
p1581
I126870
sS'compete'
p1582
I132066
sS'pension'
p1583
I23100
sS'rural'
p1584
I126343
sS'Sadly'
p1585
I110376
sS'controversial'
p1586
I89447
sS'2,200'
p1587
I53426
sS'saved'
p1588
I121114
sS'Fayetteville'
p1589
I79528
sS'relationships'
p1590
I124873
sS'votes'
p1591
I104089
sS'voter'
p1592
I131418
sS'Watch'
p1593
I116534
sS'voted'
p1594
I131342
sS'I\xdb\xaave'
p1595
I41471
sS'China'
p1596
I126208
sS'slowest'
p1597
I119261
sS'worth'
p1598
I104706
sS'Iranian'
p1599
I104975
sS'compassion'
p1600
I111826
sS'blanket'
p1601
I89207
sS'sickos'
p1602
I9253
sS'tickets'
p1603
I20951
sS'desists'
p1604
I120948
sS'debunked'
p1605
I128009
sS'math'
p1606
I119143
sS'abolishing'
p1607
I113976
sS'You\xdb\xaare'
p1608
I41544
sS'phones'
p1609
I122196
sS'oftomorrow'
p1610
I123772
sS'meekly'
p1611
I127260
sS'irrevocably'
p1612
I126486
sS'Don\xdb\xaat'
p1613
I35995
sS'above'
p1614
I131261
sS'told'
p1615
I133237
sS'protection'
p1616
I120977
sS'Yellen'
p1617
I50570
sS'murders'
p1618
I53406
sS'daughter'
p1619
I119644
sS'rigorously'
p1620
I116678
sS'items'
p1621
I129854
sS'Tuesday'
p1622
I46829
sS'secure'
p1623
I117819
sS'highly'
p1624
I130348
sS'Jeb'
p1625
I26254
sS'cheats'
p1626
I108345
sS'total'
p1627
I131413
sS'devastation'
p1628
I106746
sS'Drugs'
p1629
I68297
sS'he\xdb\xaas'
p1630
I41240
sS'manipulators'
p1631
I108385
sS'negative'
p1632
I93916
sS'Stay'
p1633
I115462
sS'287(g'
p1634
I113147
sS'separated'
p1635
I111756
sS'vacuums'
p1636
I121717
sS'reign'
p1637
I24274
sS'Teams'
p1638
I123411
sS'championships'
p1639
I99821
sS'tariff'
p1640
I18595
sS'blocking'
p1641
I88036
sS'H2B.'
p1642
I41988
sS'word'
p1643
I116198
sS'1997'
p1644
I108055
sS'permits'
p1645
I101465
sS'work'
p1646
I133165
sS'criticizing'
p1647
I29627
sS'Abe'
p1648
I62683
sS'pollute'
p1649
I21695
sS'554'
p1650
I122907
sS'550'
p1651
I69098
sS'cites'
p1652
I123334
sS'Hogan'
p1653
I78125
sS'recovery'
p1654
I119241
sS'provide'
p1655
I123677
sS'verify'
p1656
I90467
sS'Journal'
p1657
I55773
sS'interview'
p1658
I127710
sS'beach'
p1659
I33419
sS'offshore'
p1660
I70410
sS'fever'
p1661
I7289
sS'doable'
p1662
I55135
sS'after'
p1663
I132958
sS'Will'
p1664
I124251
sS'law'
p1665
I125682
sS'appreciate'
p1666
I125702
sS'fan'
p1667
I70027
sS'Trust'
p1668
I101413
sS'order'
p1669
I128712
sS'modesty'
p1670
I131740
sS'office'
p1671
I132186
sS'satisfied'
p1672
I97119
sS'Inner'
p1673
I118356
sS'misconduct'
p1674
I115072
sS'mayor'
p1675
I125214
sS'bombing'
p1676
I21627
sS'Catholics'
p1677
I132889
sS'defrauded'
p1678
I40477
sS'somewhere'
p1679
I45477
sS'50,000'
p1680
I119782
sS'production'
p1681
I123353
sS'Judge'
p1682
I29466
sS'then'
p1683
I131633
sS'them'
p1684
I132972
sS'affected'
p1685
I107351
sS'safe'
p1686
I118375
sS'break'
p1687
I116999
sS'band'
p1688
I117785
sS'they'
p1689
I132865
sS'bank'
p1690
I91956
sS'classified'
p1691
I123829
sS'backgrounds'
p1692
I124455
sS'rocks'
p1693
I120647
sS'reasonable'
p1694
I117138
sS'lifted'
p1695
I130254
sS'VA'
p1696
I108969
sS'dumping'
p1697
I120516
sS'crimes'
p1698
I127108
sS'I--'
p1699
I23586
sS'grandfather'
p1700
I57065
sS'whining'
p1701
I132472
sS'Olander'
p1702
I111091
sS'cameras'
p1703
I87490
sS'hooked'
p1704
I89463
sS'Wars'
p1705
I119043
sS'Everywhere'
p1706
I122313
sS'medicine'
p1707
I30821
sS'forth'
p1708
I132117
sS'veto'
p1709
I126525
sS'mourning'
p1710
I106741
sS'smacking'
p1711
I79058
sS'vets'
p1712
I121327
sS'certified'
p1713
I86229
sS'Parade'
p1714
I44799
sS'created'
p1715
I128828
sS'September'
p1716
I115527
sS'refugee'
p1717
I122462
sS'lousy'
p1718
I28522
sS'Depression'
p1719
I119245
sS'chopped'
p1720
I83585
sS'Cooper'
p1721
I44525
sS'Gen.'
p1722
I125376
sS'Going'
p1723
I73336
sS'another'
p1724
I128429
sS'comic'
p1725
I7652
sS'rejects'
p1726
I118564
sS'approximately'
p1727
I113783
sS'rates'
p1728
I119549
sS'grandchildren'
p1729
I129682
sS'Gene'
p1730
I99654
sS'target'
p1731
I9262
sS'negotiator'
p1732
I89674
sS'See'
p1733
I131489
sS'guilt'
p1734
I54515
sS'Sea'
p1735
I11236
sS'hacking'
p1736
I123800
sS'tipping'
p1737
I92188
sS'pessimism'
p1738
I118278
sS'500,000'
p1739
I120351
sS'manner'
p1740
I116564
sS'Instead'
p1741
I129976
sS'Correct'
p1742
I30982
sS'forced'
p1743
I116610
sS'strength'
p1744
I122683
sS'subjects'
p1745
I97938
sS'forces'
p1746
I96781
sS'what'
p1747
I133367
sS'disenfranchisement'
p1748
I131414
sS'Buckley'
p1749
I17123
sS'grave'
p1750
I128463
sS'Twelve'
p1751
I31699
sS'neighborhoods'
p1752
I105505
sS'investments'
p1753
I123999
sS'voting'
p1754
I113248
sS'Missiles'
p1755
I69486
sS'eminent'
p1756
I25457
sS'7.2'
p1757
I120177
sS'religions'
p1758
I124453
sS'respectfully'
p1759
I123289
sS'Anne'
p1760
I124990
sS'enjoyed'
p1761
I129957
sS'politician'
p1762
I125259
sS'guidance'
p1763
I124388
sS'Republicans'
p1764
I124312
sS'screening'
p1765
I114627
sS'pulpit'
p1766
I106512
sS'adequate'
p1767
I114180
sS'do'
p1768
I132984
sS'de'
p1769
I131485
sS'colleagues'
p1770
I16789
sS'preferred'
p1771
I93026
sS'25,000'
p1772
I111238
sS'nasty'
p1773
I132296
sS'runs'
p1774
I102505
sS'libels'
p1775
I127125
sS'secretary'
p1776
I106061
sS'miserably'
p1777
I34688
sS'turmoil'
p1778
I121980
sS'depends'
p1779
I130265
sS'draws'
p1780
I64309
sS'away'
p1781
I126384
sS'gentleman'
p1782
I98525
sS'arcane'
p1783
I87030
sS'cooperation'
p1784
I113366
sS'drawn'
p1785
I3999
sS'Technologies'
p1786
I101538
sS'disavowed'
p1787
I35066
sS'we'
p1788
I133387
sS'loose'
p1789
I122517
sS'terms'
p1790
I120903
sS'wo'
p1791
I128324
sS'handful'
p1792
I128682
sS'admirals'
p1793
I125385
sS'disservice'
p1794
I13870
sS'received'
p1795
I122213
sS'climate'
p1796
I85586
sS'ill'
p1797
I9258
sS'Bring'
p1798
I124230
sS'exceeds'
p1799
I121176
sS'requests'
p1800
I66210
sS'con'
p1801
I40287
sS'negotiation'
p1802
I45124
sS'tone'
p1803
I1864
sS'character'
p1804
I118737
sS'Ireland'
p1805
I77242
sS'speak'
p1806
I132609
sS'gratitude'
p1807
I124284
sS'petty'
p1808
I109636
sS'Kerry'
p1809
I96648
sS'shoulda'
p1810
I24153
sS'Hillary'
p1811
I133079
sS'Groups'
p1812
I35007
sS'flexible'
p1813
I39401
sS'warmth'
p1814
I104140
sS'duties'
p1815
I120943
sS'families'
p1816
I124082
sS'easy'
p1817
I125295
sS'attacked'
p1818
I59647
sS'gracious'
p1819
I132199
sS'publicly'
p1820
I130579
sS'Billions'
p1821
I80582
sS'air'
p1822
I115424
sS'Cleveland'
p1823
I105824
sS'property'
p1824
I120982
sS'Hood'
p1825
I27776
sS'mistake'
p1826
I97891
sS'Rubio'
p1827
I84428
sS'plated'
p1828
I82909
sS'Ike'
p1829
I10364
sS'incorrectly'
p1830
I78473
sS'independent'
p1831
I109817
sS'devalues'
p1832
I120865
sS'Institute'
p1833
I123330
sS'evil'
p1834
I97508
sS'hand'
p1835
I131429
sS'outmaneuvered'
p1836
I91236
sS'kept'
p1837
I81322
sS'1975'
p1838
I48368
sS'Mine'
p1839
I59582
sS'1970'
p1840
I118151
sS'client'
p1841
I59679
sS'Subcommittee'
p1842
I114193
sS'the'
p1843
I133301
sS'quoted'
p1844
I127404
sS'quotes'
p1845
I126528
sS'Ballistic'
p1846
I123679
sS'thanks'
p1847
I125210
sS'victim'
p1848
I111048
sS'Eighty'
p1849
I31953
sS'spread'
p1850
I122521
sS'board'
p1851
I36782
sS'mocked'
p1852
I112841
sS'editorials'
p1853
I128286
sS'caps'
p1854
I116975
sS'boxes'
p1855
I127091
sS'celebrates'
p1856
I133274
sS'Gerard'
p1857
I10888
sS'designers'
p1858
I47684
sS'Trump'
p1859
I131210
sS'night'
p1860
I132289
sS'security'
p1861
I131093
sS'soar'
p1862
I121438
sS'honored'
p1863
I107615
sS'cybersecurity'
p1864
I124001
sS'born'
p1865
I114213
sS'disparage--'
p1866
I25005
sS'congratulate'
p1867
I133078
sS'phenomenal'
p1868
I90389
sS'comments'
p1869
I127498
sS'asking'
p1870
I123915
sS'Let'
p1871
I132175
sS'phenomenas'
p1872
I126690
sS'denied'
p1873
I107743
sS'beating'
p1874
I102127
sS'School'
p1875
I5597
sS'pose'
p1876
I115494
sS'graduated'
p1877
I110954
sS'post'
p1878
I90371
sS'properties'
p1879
I131772
sS'newspapers'
p1880
I25074
sS'months'
p1881
I127374
sS'Cut'
p1882
I117281
sS'mantle'
p1883
I102062
sS'wasting'
p1884
I80156
sS'pays'
p1885
I27823
sS'prisoners'
p1886
I75888
sS'bound'
p1887
I14842
sS'Cue'
p1888
I35392
sS'capped'
p1889
I119692
sS'balanced'
p1890
I22296
sS'renovating'
p1891
I99992
sS'deception'
p1892
I60233
sS'legislation'
p1893
I113735
sS'sovereign'
p1894
I131374
sS'fight'
p1895
I119018
sS'way'
p1896
I129330
sS'was'
p1897
I133138
sS'war'
p1898
I126793
sS'lowest'
p1899
I122701
sS'becoming'
p1900
I128366
sS'converse'
p1901
I21203
sS'System'
p1902
I118435
sS'KellyAnne'
p1903
I125167
sS'elderly'
p1904
I119741
sS'true'
p1905
I132283
sS'absent'
p1906
I40318
sS'responding'
p1907
I85679
sS'markets'
p1908
I2656
sS'generosity'
p1909
I104138
sS'Fairness'
p1910
I78605
sS'emotional'
p1911
I94525
sS'Reducing'
p1912
I108532
sS'mails'
p1913
I128124
sS'promises'
p1914
I117428
sS'inclusive'
p1915
I124193
sS'Tremendous'
p1916
I124528
sS'disease'
p1917
I7452
sS'3.5%'
p1918
I121178
sS'expertise'
p1919
I42578
sS'promised'
p1920
I102530
sS'mold'
p1921
I66388
sS'physical'
p1922
I112393
sS'think--'
p1923
I25302
sS'dying'
p1924
I108963
sS'stake'
p1925
I126585
sS'topped'
p1926
I49110
sS'reality'
p1927
I126882
sS'negotiators'
p1928
I120760
sS'interested'
p1929
I42664
sS'holding'
p1930
I104369
sS'test'
p1931
I128727
sS'553,000'
p1932
I122816
sS'scored'
p1933
I121060
sS"o'clock"
p1934
I66194
sS'welcome'
p1935
I107245
sS'Radical'
p1936
I122606
sS'together'
p1937
I133392
sS'loyal'
p1938
I124626
sS'reception'
p1939
I17743
sS'stick'
p1940
I44517
sS'concept'
p1941
I82228
sS'diplomacy'
p1942
I121961
sS'global'
p1943
I129164
sS'baited'
p1944
I31635
sS'supplement'
p1945
I112442
sS'certainly'
p1946
I107416
sS'killings'
p1947
I115249
sS'zone'
p1948
I114531
sS'outplayed'
p1949
I74387
sS'permanently'
p1950
I111755
sS'terror'
p1951
I114218
sS'wouldn\xdb\xaat'
p1952
I41507
sS'division'
p1953
I124302
sS'10-year'
p1954
I70443
sS'trouble'
p1955
I132580
sS'Jersey'
p1956
I103021
sS'evaded'
p1957
I113452
sS'Just'
p1958
I132189
sS'presented'
p1959
I128218
sS'turns'
p1960
I81252
sS'gun'
p1961
I67797
sS'guy'
p1962
I131918
sS'George'
p1963
I95970
sS'upper'
p1964
I9953
sS'plummet'
p1965
I116823
sS'legalized'
p1966
I117078
sS'regret'
p1967
I95674
sS'cost'
p1968
I126774
sS'helpless'
p1969
I105231
sS'appear'
p1970
I127989
sS'assistance'
p1971
I115833
sS'havoc'
p1972
I103368
sS'Ford'
p1973
I118182
sS'Independence'
p1974
I131425
sS'During'
p1975
I83688
sS'thereabouts'
p1976
I68751
sS'supporting'
p1977
I99735
sS'explosion'
p1978
I119885
sS'Libya'
p1979
I122418
sS'Quiet'
p1980
I20893
sS'English'
p1981
I5178
sS'roaring'
p1982
I108543
sS'change'
p1983
I124212
sS'sending'
p1984
I82808
sS'Gangs'
p1985
I116825
sS'flames'
p1986
I105063
sS'disavow'
p1987
I35043
sS'trial'
p1988
I78251
sS'patriotic'
p1989
I110667
sS'extra'
p1990
I95277
sS'market'
p1991
I50518
sS'deceptions'
p1992
I129987
sS'prove'
p1993
I41391
sS'bury'
p1994
I103069
sS'live'
p1995
I131247
sS'Cities'
p1996
I113713
sS'entrance'
p1997
I120906
sS'F'
p1998
I79581
sS'club'
p1999
I130164
sS'clue'
p2000
I45533
sS'organizations'
p2001
I126491
sS'graphic'
p2002
I113240
sS'car'
p2003
I118190
sS'hardest'
p2004
I125530
sS'can'
p2005
I133314
sS'metal'
p2006
I121497
sS'heart'
p2007
I131915
sS'expanding'
p2008
I57022
sS'heard'
p2009
I130475
sS'chin'
p2010
I42378
sS'exclude'
p2011
I119718
sS'clothing'
p2012
I35747
sS'occur'
p2013
I114184
sS'Shows'
p2014
I128657
sS'productive'
p2015
I120819
sS'bankrupt'
p2016
I26260
sS'fortunately'
p2017
I100610
sS'discussion'
p2018
I128478
sS'safe--'
p2019
I24251
sS'giveaways'
p2020
I57301
sS'write'
p2021
I128251
sS'economy'
p2022
I132737
sS'product'
p2023
I126229
sS'sacrifice'
p2024
I104716
sS'southern'
p2025
I112400
sS'iPhones'
p2026
I127082
sS'I\xe2\x80\x94'
p2027
I76908
sS'produce'
p2028
I118687
sS'flourish'
p2029
I118068
sS'lifting'
p2030
I80444
sS'remember'
p2031
I133246
sS'futures'
p2032
I118012
sS'no-'
p2033
I53096
sS'serving'
p2034
I96815
sS'consulting'
p2035
I22473
sS'brain'
p2036
I113217
sS'cold'
p2037
I115218
sS'still'
p2038
I130107
sS'Dolan'
p2039
I131756
sS'Dallas'
p2040
I106332
sS'vicinity'
p2041
I80479
sS'inflicted'
p2042
I106750
sS'forms'
p2043
I66865
sS'resettling'
p2044
I114515
sS'window'
p2045
I30093
sS'Wait'
p2046
I91543
sS'non'
p2047
I122910
sS'from--'
p2048
I25632
sS'100,000'
p2049
I114724
sS'55,000'
p2050
I85112
sS'wealthy'
p2051
I119578
sS'not'
p2052
I133393
sS'Tower'
p2053
I4602
sS'now'
p2054
I128673
sS'provision'
p2055
I63815
sS'discuss'
p2056
I129611
sS'nor'
p2057
I61843
sS'inversion'
p2058
I19175
sS'TRUMP'
p2059
I27074
sS'drop'
p2060
I112597
sS'entirely'
p2061
I125263
sS'em'
p2062
I78771
sS'domain'
p2063
I25458
sS'fired'
p2064
I127602
sS'challenged'
p2065
I179
sS'ed'
p2066
I128163
sS'yeah'
p2067
I96499
sS'Barack'
p2068
I129309
sS'fires'
p2069
I74359
sS'year'
p2070
I132488
sS'et'
p2071
I66875
sS'happen'
p2072
I131471
sS'teams'
p2073
I123424
sS'Carolina'
p2074
I126351
sS'shown'
p2075
I127363
sS'Latino'
p2076
I116436
sS'opened'
p2077
I54573
sS'space'
p2078
I79823
sS'increase'
p2079
I123013
sS'receiving'
p2080
I121207
sS'shows'
p2081
I127966
sS'rebuilding'
p2082
I124485
sS'defenses'
p2083
I123937
sS'cars'
p2084
I121429
sS'advantages'
p2085
I77194
sS'Stand'
p2086
I132560
sS'obligation'
p2087
I116140
sS'card'
p2088
I40161
sS'care'
p2089
I130759
sS'vehemently'
p2090
I102262
sS'honest'
p2091
I127424
sS'invitation'
p2092
I132797
sS'Eric'
p2093
I125069
sS'blind'
p2094
I19345
sS'Humvees'
p2095
I82903
sS'They\xdb\xaall'
p2096
I37461
sS'strengthened'
p2097
I2188
sS'There'
p2098
I132407
sS'Asia'
p2099
I123640
sS'yourself'
p2100
I97189
sS'directly'
p2101
I126564
sS'impossible'
p2102
I107915
sS'message'
p2103
I117010
sS'tomorrow'
p2104
I124028
sS"'em"
p2105
I109525
sS'size'
p2106
I123142
sS'checked'
p2107
I70823
sS'silent'
p2108
I118116
sS'caught'
p2109
I121663
sS'households'
p2110
I120668
sS'tragic'
p2111
I114989
sS'friend'
p2112
I131630
sS'mostly'
p2113
I76760
sS'that'
p2114
I133326
sS'taxation'
p2115
I119720
sS'short'
p2116
I123337
sS'than'
p2117
I133223
sS'professionals'
p2118
I78729
sS'television'
p2119
I127968
sS'recruit'
p2120
I123898
sS'optimism'
p2121
I118566
sS'monopolies'
p2122
I61094
sS'apples'
p2123
I81634
sS'fruits'
p2124
I129959
sS'Conditioner'
p2125
I90765
sS'correction'
p2126
I78385
sS'Philadelphia'
p2127
I53656
sS'PhD'
p2128
I75457
sS'Call'
p2129
I31148
sS'anger'
p2130
I46564
sS'recover'
p2131
I47862
sS'DNC'
p2132
I54934
sS'veteran'
p2133
I111153
sS'offer'
p2134
I118678
sS'terrific'
p2135
I96601
sS'equipment'
p2136
I119918
sS'packed'
p2137
I79831
sS'objective'
p2138
I121737
sS'Democrats'
p2139
I131065
sS'begin'
p2140
I124480
sS'Unlike'
p2141
I121952
sS'price'
p2142
I126778
sS'banks'
p2143
I126430
sS'importantly'
p2144
I130876
sS'foothold'
p2145
I122486
sS']'
p2146
I121364
sS'forever'
p2147
I79897
sS'Foundation'
p2148
I127045
sS'sunset'
p2149
I116602
sS'professional'
p2150
I99979
sS'Fifth'
p2151
I131774
sS'Incredible'
p2152
I117734
sS'overregulation'
p2153
I120083
sS'Accomplishing'
p2154
I123742
sS'fifty'
p2155
I123749
sS'fifth'
p2156
I60383
sS'ground'
p2157
I124915
sS'Worse'
p2158
I118807
sS'Kansas'
p2159
I106364
sS'only'
p2160
I133394
sS'enriched'
p2161
I116128
sS'pollsters'
p2162
I96885
sS'Representative'
p2163
I120886
sS'televisions'
p2164
I91816
sS'congratulations'
p2165
I93458
sS'soon'
p2166
I127325
sS'deductions'
p2167
I119575
sS'July'
p2168
I132640
sS'Pardon'
p2169
I132164
sS'bigly'
p2170
I103600
sS'Household'
p2171
I104808
sS'husband'
p2172
I108194
sS'elected'
p2173
I132405
sS'unfit'
p2174
I122279
sS'A\xdb\x9d'
p2175
I39868
sS'concern'
p2176
I77254
sS'glorious'
p2177
I131451
sS'3'
p2178
I119504
sS'between'
p2179
I132119
sS'justified'
p2180
I114774
sS'notice'
p2181
I117369
sS'Johnson'
p2182
I109220
sS'blame'
p2183
I130452
sS'hurts'
p2184
I108259
sS'article'
p2185
I72671
sS'talented'
p2186
I125185
sS'Give'
p2187
I116446
sS'comes'
p2188
I133167
sS'nearby'
p2189
I104471
sS'Sachs'
p2190
I62636
sS'Aleppo'
p2191
I73864
sS'disgrace'
p2192
I127569
sS'cares'
p2193
I12756
sS'rebuild'
p2194
I124609
sS'cared'
p2195
I89287
sS'punished'
p2196
I130132
sS'Melania'
p2197
I132563
sS'Nuclear'
p2198
I122595
sS'rebuilt'
p2199
I51692
sS'wounds'
p2200
I124300
sS'2,400'
p2201
I120075
sS'countless'
p2202
I120431
sS'developing'
p2203
I123769
sS'these'
p2204
I132760
sS'wealthiest'
p2205
I54564
sS'Reagan'
p2206
I122753
sS'Ninety'
p2207
I39613
sS'editorial'
p2208
I36781
sS'joke'
p2209
I131695
sS'15%'
p2210
I119864
sS'landslide'
p2211
I34278
sS'Better'
p2212
I39653
sS'RUBIO'
p2213
I40102
sS'bias'
p2214
I133262
sS'embrace'
p2215
I124209
sS'somebody'
p2216
I133096
sS'ship'
p2217
I122844
sS'worry'
p2218
I101093
sS'Israel'
p2219
I107011
sS'develop'
p2220
I123885
sS'isn\xdb\xaat'
p2221
I37106
sS'media'
p2222
I132482
sS'quagmire'
p2223
I112195
sS'gentlemen'
p2224
I128457
sS'food'
p2225
I115829
sS'179,000'
p2226
I28658
sS'document'
p2227
I73858
sS'in,\xdb\x9d'
p2228
I39161
sS'finish'
p2229
I69068
sS'centuries'
p2230
I47860
sS'110-story'
p2231
I17220
sS'mentally'
p2232
I9257
sS'Gadhafi'
p2233
I97882
sS'charges'
p2234
I114131
sS'constitutional'
p2235
I113959
sS'congressmen'
p2236
I80319
sS'Nazi'
p2237
I46966
sS'Service'
p2238
I125679
sS'accumulate'
p2239
I119357
sS'civilized'
p2240
I129130
sS'out--'
p2241
I26413
sS'touch'
p2242
I121170
sS'Might'
p2243
I29353
sS'EPA'
p2244
I120161
sS'death'
p2245
I117350
sS'Would'
p2246
I115565
sS'flood'
p2247
I118361
sS'thinking'
p2248
I130364
sS'say--'
p2249
I26187
sS'1,400'
p2250
I48215
sS'treatment'
p2251
I102918
sS'struck'
p2252
I45829
sS'disproportionate'
p2253
I83538
sS'real'
p2254
I131509
sS'spectacular'
p2255
I125694
sS'read'
p2256
I133337
sS'early'
p2257
I109107
sS'quickness'
p2258
I342
sS'listening'
p2259
I132308
sS'using'
p2260
I120729
sS'lady'
p2261
I92072
sS'ruled'
p2262
I122356
sS'proponent'
p2263
I69819
sS'fortune'
p2264
I110440
sS'heightened'
p2265
I123562
sS'Show'
p2266
I47005
sS'endorses'
p2267
I107237
sS'annually'
p2268
I123349
sS'benefit'
p2269
I124682
sS'fully'
p2270
I130669
sS'output'
p2271
I120278
sS'endorsed'
p2272
I125388
sS'Before'
p2273
I83499
sS'apartments'
p2274
I81466
sS'Mark'
p2275
I9056
sS'E'
p2276
I115684
sS'Mary'
p2277
I124989
sS'capability'
p2278
I123682
sS'manipulator'
p2279
I120855
sS'Government'
p2280
I123103
sS'conservative'
p2281
I117783
sS'priest'
p2282
I132663
sS'deficit'
p2283
I130402
sS'Marilyn'
p2284
I111166
sS'Earl'
p2285
I111090
sS'world--'
p2286
I24557
sS'business'
p2287
I131322
sS'sixth'
p2288
I122978
sS'tuition'
p2289
I69832
sS'exciting'
p2290
I41908
sS'throw'
p2291
I129029
sS'comparison'
p2292
I7979
sS'all--'
p2293
I24552
sS'central'
p2294
I129183
sS'powered'
p2295
I120198
sS'chop'
p2296
I38240
sS'journey'
p2297
I130062
sS'greatly'
p2298
I119488
sS'testimony'
p2299
I133020
sS'intent'
p2300
I78643
sS'Centers'
p2301
I89072
sS'Hannity'
p2302
I56441
sS'outlook'
p2303
I128338
sS'heated'
p2304
I132114
sS'shrinking'
p2305
I122812
sS'your'
p2306
I131914
sS'area'
p2307
I127830
sS'removing'
p2308
I123039
sS'start'
p2309
I131688
sS'low'
p2310
I131060
sS'lot'
p2311
I133009
sS'smuggling'
p2312
I107667
sS'delayed'
p2313
I31630
sS'trying'
p2314
I132053
sS'hire'
p2315
I118521
sS'fraud'
p2316
I127541
sS'improved'
p2317
I120976
sS'Moved'
p2318
I10405
sS'billions\xe2\x80\x93'
p2319
I80562
sS'beliefs'
p2320
I124458
sS'64-year'
p2321
I111148
sS'600'
p2322
I66209
sS'moved'
p2323
I118786
sS'60%'
p2324
I104469
sS'hospitals'
p2325
I124582
sS'Jake'
p2326
I46594
sS'premiums'
p2327
I75075
sS'valid'
p2328
I110661
sS'evenings'
p2329
I76853
sS'you'
p2330
I133419
sS'Law'
p2331
I113294
sS'poor'
p2332
I82527
sS'polar'
p2333
I1892
sS'Great'
p2334
I133132
sS'carpenter'
p2335
I131933
sS'pool'
p2336
I30717
sS'building'
p2337
I113926
sS'Mexican'
p2338
I110239
sS'overseas'
p2339
I119952
sS'strings'
p2340
I105657
sS'ceases'
p2341
I120946
sS'month'
p2342
I128600
sS'thoughtful'
p2343
I110271
sS'Take'
p2344
I127838
sS'Shultz'
p2345
I75739
sS'religious'
p2346
I133303
sS' '
p2347
I131521
sS'referring'
p2348
I93606
sS'pledged'
p2349
I113846
sS'confidential'
p2350
I122264
sS'very'
p2351
I133407
sS'horror'
p2352
I129982
sS'bombed'
p2353
I97876
sS'minded'
p2354
I109487
sS'decide'
p2355
I130283
sS"I'm"
p2356
I23499
sS'heaven'
p2357
I130064
sS'--'
p2358
I117912
sS'inversions'
p2359
I7712
sS'study'
p2360
I127273
sS'cookies'
p2361
I48860
sS'colossal'
p2362
I108196
sS'streets'
p2363
I113033
sS'unheard'
p2364
I122583
sS'TSA'
p2365
I108823
sS'Korea'
p2366
I123571
sS'witnessed'
p2367
I104226
sS'investing'
p2368
I11558
sS'witnesses'
p2369
I127639
sS'apologized'
p2370
I53268
sS'learned'
p2371
I132822
sS'Totally'
p2372
I41292
sS'edited'
p2373
I104741
sS'Let\xdb\xaas'
p2374
I40258
sS'Buzzfeed'
p2375
I36742
sS'75,000'
p2376
I119809
sS'answers'
p2377
I126507
sS'tracks'
p2378
I122201
sS'strong'
p2379
I133379
sS'arena'
p2380
I106094
sS'\xe2\x80\x99d'
p2381
I133347
sS'Gov.'
p2382
I125236
sS'ahead'
p2383
I128662
sS'\xe2\x80\x99m'
p2384
I132650
sS'reason'
p2385
I126023
sS'amount'
p2386
I123122
sS'base'
p2387
I129184
sS'advertising'
p2388
I56564
sS'\xe2\x80\x99s'
p2389
I133295
sS'Border'
p2390
I117444
sS'Independents'
p2391
I124316
sS'toughness'
p2392
I13438
sS'family'
p2393
I130584
sS'editors'
p2394
I128443
sS'put'
p2395
I131311
sS'trained'
p2396
I122246
sS'chunks'
p2397
I11792
sS'takes'
p2398
I132950
sS'taken'
p2399
I132968
sS'lowering'
p2400
I119548
sS'Bless'
p2401
I121550
sS'excuse'
p2402
I88809
sS'So'
p2403
I131077
sS'broke'
p2404
I133210
sS'factories'
p2405
I126196
sS'producing'
p2406
I121590
sS'sovereignty'
p2407
I129171
sS'respected'
p2408
I128645
sS'offended'
p2409
I16779
sS'nine'
p2410
I115668
sS'budgets'
p2411
I43315
sS'history'
p2412
I133340
sS'adviser'
p2413
I75440
sS'pushed'
p2414
I106942
sS'phrase'
p2415
I85452
sS'lacks'
p2416
I105867
sS'resettled'
p2417
I114527
sS'reject'
p2418
I118276
sS'vigilance'
p2419
I17828
sS'ransom'
p2420
I122567
sS'tried'
p2421
I123652
sS'sneak'
p2422
I65021
sS'roadblocks'
p2423
I12160
sS'spent--'
p2424
I25954
sS'Syria'
p2425
I122443
sS'inconceivable'
p2426
I15068
sS'a'
p2427
I133401
sS'criticize'
p2428
I27351
sS'Excessive'
p2429
I108584
sS'Mexico'
p2430
I130819
sS'documentation'
p2431
I114486
sS'anytime'
p2432
I62771
sS'colonels'
p2433
I97765
sS'wreaking'
p2434
I103367
sS'dream'
p2435
I124876
sS'Marathon'
p2436
I106778
sS'Horse'
p2437
I112019
sS'remnants'
p2438
I3751
sS'help'
p2439
I131177
sS'--waste'
p2440
I24798
sS'charities'
p2441
I72217
sS'held'
p2442
I120424
sS'committed'
p2443
I115289
sS'hell'
p2444
I131106
sS'MIT'
p2445
I83248
sS'dummies'
p2446
I11486
sS'taxpayer'
p2447
I119597
sS'solving'
p2448
I47170
sS'actually'
p2449
I132334
sS'systems'
p2450
I123950
sS'founders'
p2451
I67593
sS'peanuts'
p2452
I33143
sS"haven't"
p2453
I126112
sS'finer'
p2454
I14094
sS'fool'
p2455
I128569
sS'evening'
p2456
I132988
sS'ya'
p2457
I53567
sS'African-'
p2458
I116431
sS'desperately'
p2459
I130786
sS'payer'
p2460
I61182
sS'450,000'
p2461
I122872
sS'occasions'
p2462
I122236
sS'intervene'
p2463
I122127
sS'bless'
p2464
I133415
sS'stopped'
p2465
I79847
sS'referred'
p2466
I35214
sS'ball'
p2467
I89756
sS'beyond'
p2468
I130631
sS'event'
p2469
I133197
sS'magnet'
p2470
I119988
sS'since'
p2471
I132727
sS'equate'
p2472
I46963
sS'safety'
p2473
I131249
sS'7'
p2474
I120367
sS'issue'
p2475
I132624
sS'None'
p2476
I113230
sS'According'
p2477
I120968
sS'houses'
p2478
I72334
sS'Tucson'
p2479
I78801
sS'heroin'
p2480
I68445
sS'brightest'
p2481
I124675
sS'ask'
p2482
I123960
sS'earliest'
p2483
I89247
sS'Fantastic'
p2484
I125048
sS'Boston'
p2485
I115264
sS'terrible'
p2486
I130143
sS'cheering'
p2487
I106883
sS'businessmen'
p2488
I18286
sS'partnerships'
p2489
I121766
sS'shave'
p2490
I121088
sS'CNBC'
p2491
I9592
sS'knocking'
p2492
I89068
sS'Kamatsu'
p2493
I18777
sS'13,000'
p2494
I115199
sS'miss'
p2495
I71033
sS'380,000'
p2496
I28672
sS'horse'
p2497
I129272
sS'scholars'
p2498
I67572
sS'wonderful'
p2499
I133196
sS'hundred'
p2500
I131071
sS'selling'
p2501
I102748
sS'behind'
p2502
I129207
sS'norms'
p2503
I116264
sS'1912'
p2504
I86535
sS'1915'
p2505
I122736
sS'apprentice'
p2506
I2859
sS'grocery'
p2507
I131004
sS'assaulted'
p2508
I111171
sS'recovered'
p2509
I5676
sS'Arpaio'
p2510
I79935
sS'toward'
p2511
I123714
sS'Saudis'
p2512
I102903
sS'God'
p2513
I133414
sS'Peace'
p2514
I107696
sS'Douglas'
p2515
I73149
sS'juice'
p2516
I43448
sS'substantial'
p2517
I127302
sS'sentences'
p2518
I113314
sS'Penn'
p2519
I90889
sS'Sykes'
p2520
I23549
sS'vulnerable'
p2521
I123795
sS'thought'
p2522
I133362
sS'officers'
p2523
I114957
sS'With'
p2524
I126578
sS'towards'
p2525
I89089
sS'hombres'
p2526
I68645
sS'quote'
p2527
I69748
sS'anniversary'
p2528
I127810
sS'Chief'
p2529
I122286
sS'hired'
p2530
I121486
sS'The'
p2531
I133333
sS'approved'
p2532
I49321
sS'salary'
p2533
I94169
sS'viciously'
p2534
I106727
sS'clear'
p2535
I126711
sS'tubed'
p2536
I3179
sS'clean'
p2537
I66912
sS'tubes'
p2538
I26464
sS'tremendous--'
p2539
I24796
sS'renegotiate'
p2540
I121371
sS'stores'
p2541
I105913
sS'justice'
p2542
I122204
sS'destabilize'
p2543
I95594
sS'Fourteen'
p2544
I93461
sS'pretty'
p2545
I129655
sS'circle'
p2546
I81273
sS'Michelle'
p2547
I132500
sS'dominant'
p2548
I124036
sS'trees'
p2549
I34322
sS'famous'
p2550
I66182
sS'While'
p2551
I131800
sS'grew'
p2552
I119255
sS'Medicare'
p2553
I117844
sS'pretending'
p2554
I132885
sS'competing'
p2555
I61064
sS'during'
p2556
I127708
sS'catcher'
p2557
I2693
sS'boost'
p2558
I116386
sS'adhering'
p2559
I33255
sS'poisoned'
p2560
I72690
sS'throwing'
p2561
I105632
sS'lifetimes'
p2562
I75317
sS'France'
p2563
I106713
sS'culture'
p2564
I133272
sS'irredeemable'
p2565
I118833
sS'protecting'
p2566
I108887
sS'close'
p2567
I128917
sS'pictures'
p2568
I59919
sS'wow'
p2569
I98822
sS'Part'
p2570
I36511
sS'probably'
p2571
I128323
sS'conditions'
p2572
I110657
sS'statistically'
p2573
I43884
sS'missing'
p2574
I127090
sS'Unbelievable'
p2575
I125218
sS'ranked'
p2576
I5621
sS'hardline'
p2577
I101228
sS'that\xdb\xaas'
p2578
I41675
sS'both'
p2579
I131769
sS'secrets'
p2580
I120934
sS'Hard'
p2581
I115168
sS'minorities'
p2582
I114804
sS'Steve'
p2583
I125176
sS'sensitive'
p2584
I110609
sS'forgotten'
p2585
I133023
sS'Graham'
p2586
I23855
sS'liked'
p2587
I98295
sS'Compaq'
p2588
I5694
sS'headed'
p2589
I115813
sS'Panama'
p2590
I119037
sS'whatever'
p2591
I126999
sS'uniforms'
p2592
I88394
sS'spotting'
p2593
I13667
sS'likes'
p2594
I130739
sS'Was'
p2595
I95368
sS'War'
p2596
I122714
sS'described'
p2597
I118823
sS'Most'
p2598
I111991
sS'Protection'
p2599
I66802
sS'California'
p2600
I111145
sS'preventable'
p2601
I111770
sS'territory'
p2602
I122459
sS'Women'
p2603
I44668
sS'lived'
p2604
I104948
sS'Especially'
p2605
I66965
sS'else'
p2606
I130095
sS'28,000'
p2607
I43182
sS'compromised'
p2608
I107106
sS'bidding'
p2609
I36203
sS'look'
p2610
I131018
sS'substantiates'
p2611
I97961
sS'governor'
p2612
I47144
sS'pace'
p2613
I110635
sS'while'
p2614
I129496
sS'smart'
p2615
I133384
sS'Qatar'
p2616
I76143
sS'LAUER'
p2617
I96715
sS'voters'
p2618
I102225
sS'funded'
p2619
I34082
sS'reads'
p2620
I109882
sS'Got'
p2621
I114432
sS'ready'
p2622
I123429
sS'increased'
p2623
I123351
sS'anymore'
p2624
I132327
sS'grant'
p2625
I61587
sS'grand'
p2626
I91025
sS'conflict'
p2627
I124921
sS'used'
p2628
I130158
sS'temporary'
p2629
I115617
sS'ratings'
p2630
I31867
sS'uses'
p2631
I1162
sS'decency'
p2632
I105876
sS'Amendment'
p2633
I117578
sS'older'
p2634
I25243
sS'Dinner'
p2635
I131963
sS'obviously'
p2636
I57340
sS'Girl'
p2637
I66064
sS'weakest'
p2638
I119237
sS'distances'
p2639
I112637
sS'judgments'
p2640
I64062
sS'reviewed'
p2641
I66424
sS'Internet'
p2642
I55055
sS'$'
p2643
I133224
sS'questioned'
p2644
I69944
sS'remaining'
p2645
I129707
sS'...'
p2646
I128960
sS'Safe'
p2647
I124246
sS'showing'
p2648
I128627
sS'game'
p2649
I92710
sS'wiser'
p2650
I25245
sS'defied'
p2651
I122086
sS'outright'
p2652
I127246
sS'interestingly'
p2653
I127984
sS'translates'
p2654
I119227
sS'popular'
p2655
I113146
sS'mathematical'
p2656
I47119
sS'fathers'
p2657
I122802
sS'creation'
p2658
I124015
sS'some'
p2659
I133047
sS'urgent'
p2660
I124482
sS'economic'
p2661
I126291
sS'Choose'
p2662
I116521
sS'I\xdb\xaall'
p2663
I35824
sS'Donors'
p2664
I20965
sS'dilapidated'
p2665
I119425
sS'civilization'
p2666
I129923
sS'run'
p2667
I131770
sS'Bill'
p2668
I108075
sS'stem'
p2669
I83655
sS'step'
p2670
I107083
sS'negatives'
p2671
I1685
sS'abroad'
p2672
I105366
sS'wealth'
p2673
I126377
sS'faith'
p2674
I96013
sS'Committee'
p2675
I24386
sS'congressman'
p2676
I36224
sS'block'
p2677
I113690
sS'disclosure'
p2678
I51267
sS'within'
p2679
I121809
sS'nonsense'
p2680
I100845
sS'Their'
p2681
I129220
sS'Ruth'
p2682
I84062
sS'rolls'
p2683
I119544
sS'militarily'
p2684
I85524
sS'statistics'
p2685
I7123
sS'..'
p2686
I62025
sS'renewal'
p2687
I124665
sS'Called'
p2688
I23816
sS'visas'
p2689
I117299
sS'Katharine'
p2690
I22367
sS'manufacture'
p2691
I49402
sS'himself'
p2692
I86145
sS'registered'
p2693
I72800
sS'inept'
p2694
I129302
sS'properly'
p2695
I116558
sS'haven\xe2\x80\x99t'
p2696
I132895
sS'authority'
p2697
I22418
sS'newer'
p2698
I57029
sS'amateurish'
p2699
I22158
sS'loopholes'
p2700
I119583
sS'circuits'
p2701
I21801
sS'Twitter'
p2702
I66283
sS'....'
p2703
I11366
sS'Those'
p2704
I117089
sS'--that'
p2705
I23955
sS'similar'
p2706
I109063
sS'ordered'
p2707
I114891
sS'Hampshire'
p2708
I85979
sS'To'
p2709
I130566
sS'Above'
p2710
I112429
sS'amounts'
p2711
I121270
sS'fears'
p2712
I111736
sS'politicians'
p2713
I131580
sS'department'
p2714
I108990
sS'draw'
p2715
I111353
sS'Stanford'
p2716
I37469
sS'regulations'
p2717
I121273
sS'drag'
p2718
I120467
sS'structure'
p2719
I126408
sS'e'
p2720
I128122
sS'practically'
p2721
I97379
sS'required'
p2722
I115335
sS'Am'
p2723
I132598
sS'Al'
p2724
I131961
sS'An'
p2725
I119884
sS'As'
p2726
I126043
sS'At'
p2727
I124713
sS'Self'
p2728
I27159
sS'Lara'
p2729
I125124
sS'go'
p2730
I132583
sS'Sabine'
p2731
I107468
sS'Combat'
p2732
I123410
sS'Award'
p2733
I32511
sS'Rifle'
p2734
I109114
sS'Not'
p2735
I132459
sS'Now'
p2736
I132891
sS'friendly'
p2737
I27671
sS'rollback'
p2738
I104426
sS'miners'
p2739
I121402
sS'wave'
p2740
I125649
sS'--down'
p2741
I26462
sS'telling'
p2742
I115457
sS'yourselves'
p2743
I69758
sS'Charlotte'
p2744
I65884
sS'positions'
p2745
I92607
sS'button'
p2746
I58300
sS'compassionate'
p2747
I111819
sS'verdict'
p2748
I120610
sS'deleting'
p2749
I60674
sS'enforce'
p2750
I123821
sS'Petraeus'
p2751
I129875
sS'target="_blank"'
p2752
I118169
sS'picked'
p2753
I99029
sS'cartel'
p2754
I131315
sS'honors'
p2755
I124653
sS'They\xdb\xaave'
p2756
I41653
sS'cell'
p2757
I12675
sS'rotten'
p2758
I131656
sS'Properly'
p2759
I10198
sS';'
p2760
I132361
sS'America'
p2761
I133416
sS'stance'
p2762
I92124
sS'following'
p2763
I123376
sS'Green'
p2764
I93466
sS'Likewise'
p2765
I129749
sS'Ahh'
p2766
I131872
sS'overseen'
p2767
I122639
sS'Back'
p2768
I124231
sS'Theodore'
p2769
I92990
sS'products'
p2770
I103875
sS'Arabia'
p2771
I123302
sS'Yorkers'
p2772
I17345
sS'danger'
p2773
I122666
sS'pitch'
p2774
I132734
sS'win'
p2775
I130927
sS'addressed'
p2776
I85016
sS'Rite'
p2777
I76553
sS'announced'
p2778
I126220
sS'vs.'
p2779
I67663
sS'panel'
p2780
I7999
sS'bureaucracy'
p2781
I123224
sS'started'
p2782
I131920
sS'becomes'
p2783
I68986
sS'missile'
p2784
I123734
sS'appointed'
p2785
I67616
sS'crosser'
p2786
I104609
sS'crosses'
p2787
I112548
sS'announcing'
p2788
I100889
sS'sanctions'
p2789
I122400
sS'ride'
p2790
I91495
sS'averaged'
p2791
I120483
sS'crossed'
p2792
I104566
sS'Vote'
p2793
I132751
sS'meet'
p2794
I132394
sS'Nevada'
p2795
I84596
sS'control'
p2796
I129467
sS'Israeli'
p2797
I44873
sS'Mr.'
p2798
I99035
sS'hit'
p2799
I128101
sS'voice'
p2800
I118944
sS'Raqqa'
p2801
I65214
sS'jails'
p2802
I113164
sS'B-52'
p2803
I122798
sS'Blumenthal'
p2804
I66223
sS'located'
p2805
I100467
sS'conversations'
p2806
I110318
sS'discard'
p2807
I124198
sS'feels'
p2808
I58102
sS'Middle'
p2809
I123644
sS'agenda'
p2810
I126765
sS'healthcare'
p2811
I122011
sS'hid'
p2812
I84963
sS'executives'
p2813
I97674
sS'Wilson'
p2814
I86565
sS'astronomical'
p2815
I58544
sS'Smith'
p2816
I131962
sS'including'
p2817
I129873
sS'mentioned'
p2818
I112181
sS'Graydon'
p2819
I83673
sS'Recently'
p2820
I107013
sS'Exchange'
p2821
I24686
sS'emails'
p2822
I123836
sS'imbalance'
p2823
I10881
sS'Miami'
p2824
I45908
sS'auto'
p2825
I116641
sS'hands'
p2826
I131806
sS'front'
p2827
I127556
sS'documented'
p2828
I127018
sS'Supreme'
p2829
I130850
sS'shaking'
p2830
I83768
sS'promises--'
p2831
I24366
sS'upward'
p2832
I116202
sS'chunk'
p2833
I64502
sS'Representatives'
p2834
I75445
sS'special'
p2835
I133220
sS'secretly'
p2836
I129478
sS'entertainment'
p2837
I58062
sS'armor'
p2838
I82933
sS'Season'
p2839
I37710
sS'criminally'
p2840
I71753
sS'critics'
p2841
I109662
sS'thriving'
p2842
I70674
sS'Beginning'
p2843
I104270
sS'achievements'
p2844
I32778
sS'that--'
p2845
I25016
sS'delegates'
p2846
I102240
sS'70s'
p2847
I132729
sS'completely'
p2848
I119396
sS'conservatives'
p2849
I36410
sS'20,000'
p2850
I80792
sS'drowning'
p2851
I108852
sS'route'
p2852
I116895
sS'keep'
p2853
I128755
sS'acres'
p2854
I79826
sS'diminishes'
p2855
I108265
sS'haven\xdb\xaat'
p2856
I35895
sS'powerful'
p2857
I126694
sS'mischaracterization'
p2858
I4861
sS'Gunned'
p2859
I111053
sS'quality'
p2860
I131745
sS'management'
p2861
I97914
sS'Corporate'
p2862
I19174
sS'chapter--'
p2863
I26211
sS'relations'
p2864
I52874
sS'attack'
p2865
I127157
sS'intelligence'
p2866
I115522
sS'Klan'
p2867
I79025
sS'1,200'
p2868
I123499
sS'final'
p2869
I120068
sS'exactly'
p2870
I115236
sS'minute'
p2871
I94906
sS'lists'
p2872
I53168
sS'manipulation'
p2873
I120519
sS'overwhelming'
p2874
I102606
sS'herself'
p2875
I128571
sS'updating'
p2876
I57039
sS'neck'
p2877
I93109
sS'heartedly'
p2878
I5073
sS'bed'
p2879
I54910
sS'claim'
p2880
I128105
sS'Oval'
p2881
I113991
sS'bare'
p2882
I126372
sS'providing'
p2883
I56826
sS'enforced'
p2884
I116681
sS'lightly'
p2885
I56166
sS'Other'
p2886
I93819
sS'need'
p2887
I133254
sS'border'
p2888
I130783
sS'screw'
p2889
I79920
sS'pursued'
p2890
I77492
sS'able'
p2891
I126667
sS'2.6'
p2892
I121046
sS'instance'
p2893
I131766
sS'relatives'
p2894
I119742
sS'issuing'
p2895
I115012
sS'declined'
p2896
I120665
sS'so'
p2897
I133352
sS'camper'
p2898
I57441
sS'expired'
p2899
I123193
sS'consequences'
p2900
I116105
sS'upset'
p2901
I94330
sS'proceedings'
p2902
I112996
sS'gesture'
p2903
I72101
sS'businessman'
p2904
I42176
sS'affair'
p2905
I98423
sS'Matt'
p2906
I98178
sS'reprehensible'
p2907
I130630
sS'violation'
p2908
I120720
sS'anyway'
p2909
I8957
sS'parked'
p2910
I119933
sS'soldiers'
p2911
I122817
sS'partners'
p2912
I57221
sS'based'
p2913
I128334
sS'earned'
p2914
I123098
sS'winner'
p2915
I73577
sS'dreamers'
p2916
I109649
sS'fuel'
p2917
I96238
sS'employed'
p2918
I128709
sS'achieve'
p2919
I126601
sS'crumbling'
p2920
I103096
sS'120'
p2921
I36583
sS'joint'
p2922
I112765
sS'legitimate'
p2923
I6240
sS'procedures'
p2924
I36204
sS'endless'
p2925
I121659
sS'Forget'
p2926
I87641
sS'course'
p2927
I132943
sS'shy'
p2928
I125004
sS'processed'
p2929
I113100
sS'wish'
p2930
I99336
sS'grab'
p2931
I84263
sS'Diane'
p2932
I23548
sS'cuts'
p2933
I122968
sS'immigrant'
p2934
I113357
sS'legacy'
p2935
I122624
sS'Good'
p2936
I113137
sS'Wisconsin'
p2937
I106362
sS'harvested'
p2938
I121472
sS'nightmare'
p2939
I73835
sS'horribly'
p2940
I107519
sS'tend'
p2941
I53206
sS'written'
p2942
I128420
sS'Harvard'
p2943
I37464
sS'horrible'
p2944
I131085
sS'tens'
p2945
I128687
sS'neither'
p2946
I69149
sS'sold'
p2947
I105887
sS'Sen.'
p2948
I125277
sS'importance'
p2949
I110204
sS'key'
p2950
I123617
sS'approval'
p2951
I126523
sS'problem'
p2952
I117808
sS'hits'
p2953
I89622
sS'limits'
p2954
I116977
sS'career'
p2955
I126960
sS'minds'
p2956
I109208
sS'admit'
p2957
I130733
sS'African'
p2958
I131099
sS'Patton'
p2959
I95971
sS'Low'
p2960
I119744
sS'Lou'
p2961
I99651
sS'quit'
p2962
I88124
sS'pin'
p2963
I127496
sS'addition'
p2964
I123775
sS'discrimination'
p2965
I54586
sS'Immigration'
p2966
I115805
sS'liberals'
p2967
I36408
sS'treat'
p2968
I111796
sS'Sonnenfeld'
p2969
I5600
sS'contribute'
p2970
I109195
sS'controlled'
p2971
I126861
sS'league'
p2972
I68956
sS'CIO'
p2973
I56627
sS'releasing'
p2974
I50661
sS'World'
p2975
I122713
sS'And'
p2976
I133300
sS'debtor'
p2977
I82534
sS'hesitant'
p2978
I89555
sS'Ann'
p2979
I131520
sS'harder'
p2980
I126272
sS'180,000'
p2981
I104535
sS'inaccurately'
p2982
I127405
sS'owns'
p2983
I116753
sS'Any'
p2984
I104298
sS'Sergeant'
p2985
I1972
sS'2,300'
p2986
I82902
sS'surface'
p2987
I123469
sS'swinging'
p2988
I79260
sS'hearted'
p2989
I132077
sS'You'
p2990
I132495
sS'capture'
p2991
I82818
sS'began'
p2992
I110065
sS'autism'
p2993
I7358
sS'parts'
p2994
I118756
sS'speaker'
p2995
I47573
sS'party'
p2996
I106770
sS'Failing'
p2997
I118339
sS'effect'
p2998
I113971
sS'nightly'
p2999
I104745
sS'single'
p3000
I128395
sS'destruction'
p3001
I130292
sS'paycheck'
p3002
I42667
sS'transaction'
p3003
I58578
sS'lunch'
p3004
I90728
sS'modeled'
p3005
I121073
sS'Islamophobia'
p3006
I61622
sS'Have'
p3007
I73786
sS'Stern'
p3008
I83485
sS'restore'
p3009
I113129
sS'taller'
p3010
I27875
sS'increasingly'
p3011
I123599
sS'1,100'
p3012
I100935
sS'accurate'
p3013
I81384
sS'Ultimately'
p3014
I35028
sS'sources'
p3015
I121475
sS'Sunday'
p3016
I106371
sS'mistakes'
p3017
I108197
sS'nonense'
p3018
I25705
sS'skill'
p3019
I116368
sS'dais'
p3020
I132150
sS'Be'
p3021
I47888
sS'7,000'
p3022
I120290
sS'BASH'
p3023
I30764
sS'Despite'
p3024
I81883
sS'By'
p3025
I128035
sS'kick'
p3026
I70738
sS'fate'
p3027
I107577
sS'crushed'
p3028
I130833
sS'260'
p3029
I100387
sS'Keady'
p3030
I99655
sS'burden'
p3031
I118073
sS'immediately'
p3032
I131323
sS'loss'
p3033
I109231
sS'necessary'
p3034
I127001
sS'they\xdb\xaall'
p3035
I41259
sS'lost'
p3036
I130765
sS'sized'
p3037
I83796
sS'payments'
p3038
I123109
sS'lose'
p3039
I131111
sS'refugees'
p3040
I121998
sS'page'
p3041
I128283
sS'tempered'
p3042
I121692
sS'home'
p3043
I132584
sS'liking'
p3044
I1697
sS'competitor'
p3045
I125323
sS'Seventh'
p3046
I35726
sS'Inconceivable'
p3047
I58695
sS'?'
p3048
I132749
sS'medieval'
p3049
I83576
sS'reaching'
p3050
I124382
sS'journal'
p3051
I41117
sS'monetary'
p3052
I90928
sS'prohibited'
p3053
I120900
sS'Uh'
p3054
I84856
sS'offset'
p3055
I123050
sS'choked'
p3056
I122396
sS'misrepresentation'
p3057
I16000
sS'unhinged'
p3058
I12733
sS'freedom'
p3059
I108267
sS'US'
p3060
I123582
sS'equally'
p3061
I106611
sS'previously'
p3062
I113354
sS'Keystone'
p3063
I21140
sS'managing'
p3064
I8134
sS'Thousands'
p3065
I52439
sS'additional'
p3066
I123725
sS'Lawrence'
p3067
I16513
sS'noticed'
p3068
I132896
sS'inner'
p3069
I131149
sS'damn'
p3070
I3642
sS'blaming'
p3071
I62659
sS'neutral'
p3072
I119175
sS'hi'
p3073
I93981
sS'goals'
p3074
I123380
sS'courts'
p3075
I93057
sS'threaten'
p3076
I104553
sS'highest'
p3077
I108524
sS'eat'
p3078
I18007
sS'he'
p3079
I132671
sS'businesspeople'
p3080
I97990
sS'signed'
p3081
I120823
sS'limit'
p3082
I118490
sS'piece'
p3083
I128164
sS'overstayed'
p3084
I115588
sS'penny'
p3085
I121127
sS'beats'
p3086
I35435
sS'education'
p3087
I131140
sS'deplorables'
p3088
I65958
sS'contest'
p3089
I131830
sS'Never'
p3090
I127055
sS'offensive'
p3091
I123980
sS'star'
p3092
I125525
sS'Like'
p3093
I90508
sS'sleazy'
p3094
I71726
sS'stay'
p3095
I119681
sS'deter'
p3096
I122673
sS'friends'
p3097
I131857
sS'appoint'
p3098
I121303
sS'portion'
p3099
I123703
sS'Spanish'
p3100
I5181
sS'determination'
p3101
I68634
sS'Donna'
p3102
I132933
sS'dynamic'
p3103
I121050
sS'protest'
p3104
I107419
sS'whose'
p3105
I130888
sS'fronts'
p3106
I111531
sS'Parenthood'
p3107
I29908
sS'investigation'
p3108
I127360
sS'sorry'
p3109
I58103
sS'plants'
p3110
I119916
sS'collaborate'
p3111
I126561
sS'rescue'
p3112
I108754
sS'Santorum'
p3113
I14535
sS'railways'
p3114
I108736
sS'misunderstanding'
p3115
I6241
sS'tidbits'
p3116
I36069
sS'toppling'
p3117
I121700
sS'reforms'
p3118
I123084
sS'affect'
p3119
I117338
sS'Bret'
p3120
I37365
sS'vast'
p3121
I120694
sS'skills'
p3122
I97915
sS'companies'
p3123
I116010
sS'convenience'
p3124
I110992
sS'enhance'
p3125
I113365
sS'deplorable'
p3126
I118857
sS'force'
p3127
I129427
sS'what\xdb\xaas'
p3128
I40842
sS'Christie'
p3129
I125238
sS'across'
p3130
I129128
sS'likely'
p3131
I129607
sS'Attitudes'
p3132
I114806
sS'NYC'
p3133
I125685
sS'twiddled'
p3134
I129696
sS'even'
p3135
I132484
sS'Arizona'
p3136
I129559
sS'prisons'
p3137
I111224
sS'integrity'
p3138
I123860
sS'Merkel'
p3139
I46324
sS'Put'
p3140
I98826
sS'new'
p3141
I131455
sS'net'
p3142
I133242
sS'ever'
p3143
I133035
sS'evolving'
p3144
I29746
sS'statehood'
p3145
I85339
sS'never'
p3146
I133344
sS'drew'
p3147
I105027
sS'10%'
p3148
I122932
sS'met'
p3149
I132383
sS'109'
p3150
I34893
sS'active'
p3151
I123386
sS'Ohio'
p3152
I126348
sS'100'
p3153
I120346
sS'106'
p3154
I24828
sS'interpret'
p3155
I67587
sS'dry'
p3156
I126184
sS'economics'
p3157
I65409
sS'expedited'
p3158
I5028
sS'credit'
p3159
I112805
sS'permit'
p3160
I9161
sS'Ricketts'
p3161
I83086
sS'bureaucrats'
p3162
I108778
sS'fantastic'
p3163
I132512
sS'campaign'
p3164
I132385
sS'mobility'
p3165
I116203
sS'St.'
p3166
I76262
sS'Also'
p3167
I110972
sS'Telemundo'
p3168
I28946
sS'criminals'
p3169
I127013
sS'arms'
p3170
I102247
sS'call'
p3171
I131848
sS'calm'
p3172
I2524
sS'survive'
p3173
I103720
sS'tell'
p3174
I133041
sS'supporters'
p3175
I109852
sS'wars'
p3176
I122018
sS'warm'
p3177
I109483
sS'frenzy'
p3178
I9372
sS'adult'
p3179
I108867
sS'aligned'
p3180
I74194
sS'ABC'
p3181
I132420
sS'room'
p3182
I131562
sS'rights'
p3183
I131375
sS'roof'
p3184
I26436
sS'exceptions'
p3185
I92778
sS'the\xe2\x80\x93'
p3186
I84240
sS'give'
p3187
I133307
sS'Corporation'
p3188
I28295
sS'Esquire'
p3189
I95566
sS'10,000'
p3190
I119817
sS'They\xdb\xaare'
p3191
I38768
sS'advancing'
p3192
I121578
sS'aging'
p3193
I123666
sS'Phoenix'
p3194
I110012
sS'amazing'
p3195
I133063
sS'answer'
p3196
I117374
sS'believers'
p3197
I109647
sS'loyalty'
p3198
I109859
sS'm--'
p3199
I23902
sS'curiosity'
p3200
I117422
sS'president'
p3201
I132467
sS'All'
p3202
I128927
sS'Appeals'
p3203
I39987
sS'attempt'
p3204
I128745
sS'third'
p3205
I128436
sS'Ended'
p3206
I58329
sS'maintain'
p3207
I4823
sS"haven't--"
p3208
I26378
sS'operations'
p3209
I122441
sS'Newark'
p3210
I51579
sS'responsive'
p3211
I123069
sS'before'
p3212
I133331
sS'personal'
p3213
I133058
sS','
p3214
I133409
sS'better'
p3215
I131748
sS'differently'
p3216
I102700
sS'weeks'
p3217
I131954
sS'donors'
p3218
I126453
sS'Generals'
p3219
I121672
sS'be--'
p3220
I23926
sS'combination'
p3221
I119165
sS'Bobby'
p3222
I99807
sS'Pfizer'
p3223
I77221
sS'weakness'
p3224
I105335
sS'unemployed'
p3225
I118703
sS'\xe2\x80\x9904'
p3226
I95569
sS'aborted'
p3227
I1599
sS'rhetoric'
p3228
I113257
sS'leaner'
p3229
I123066
sS'Indeed'
p3230
I128609
sS'arrested'
p3231
I112982
sS'victories'
p3232
I102634
sS'went'
p3233
I132653
sS'side'
p3234
I109327
sS'mean'
p3235
I130311
sS'Wow'
p3236
I98508
sS'principles'
p3237
I109066
sS'taught'
p3238
I123791
sS'trading'
p3239
I106069
sS'stealing'
p3240
I48339
sS'lawyers'
p3241
I80083
sS'mandated'
p3242
I36179
sS'crucial'
p3243
I122272
sS'is-'
p3244
I35834
sS'debit'
p3245
I35637
sS'surprise'
p3246
I101594
sS'assaults'
p3247
I115252
sS'You\xdb\xaall'
p3248
I38726
sS'struggle'
p3249
I126809
sS'Clinton'
p3250
I130906
sS'starts'
p3251
I115980
sS'signature'
p3252
I107978
sS'impede'
p3253
I78258
sS'destabilized--'
p3254
I24161
sS'grade'
p3255
I104651
sS'hook'
p3256
I129867
sS'disappearing'
p3257
I43830
sS'recruiting'
p3258
I106782
sS'became--'
p3259
I25204
sS'Admirals'
p3260
I121674
sS'Mesa'
p3261
I111001
sS'lower'
p3262
I121258
sS'somewhat'
p3263
I105190
sS'begins'
p3264
I119472
sS'distance'
p3265
I112621
sS'Cyber'
p3266
I123894
sS'matter'
p3267
I132621
sS'fabulous'
p3268
I47820
sS'bidder'
p3269
I103169
sS'rattle'
p3270
I132311
sS'modern'
p3271
I123726
sS'mind'
p3272
I126101
sS'mine'
p3273
I131936
sS'childcare'
p3274
I121065
sS'seen'
p3275
I131187
sS'seem'
p3276
I118765
sS'seek'
p3277
I126967
sS'tells'
p3278
I111567
sS'impotent'
p3279
I78353
sS'chess'
p3280
I91032
sS'tunnels'
p3281
I121418
sS'established'
p3282
I116981
sS'Knight'
p3283
I99808
sS'Comey'
p3284
I132645
sS'Bernie'
p3285
I126515
sS'Attorney'
p3286
I129622
sS"O'Donnell"
p3287
I58080
sS'medical'
p3288
I130758
sS'dog'
p3289
I94813
sS'points'
p3290
I128661
sS'ambassador'
p3291
I132219
sS'Illegal'
p3292
I107671
sS'implodes'
p3293
I60927
sS'ending'
p3294
I110206
sS'judges'
p3295
I92262
sS'explain'
p3296
I89618
sS'Fred'
p3297
I125040
sS'unleashed'
p3298
I103353
sS'Bergdahl'
p3299
I1977
sS'folks'
p3300
I129934
sS'wearing'
p3301
I78962
sS'compounded'
p3302
I121198
sS'conduct'
p3303
I127211
sS'stop'
p3304
I132471
sS'cartels'
p3305
I112454
sS'slanderous'
p3306
I128588
sS'Organization'
p3307
I120589
sS'quarters'
p3308
I87441
sS'comply'
p3309
I115041
sS'earn'
p3310
I102215
sS'fields'
p3311
I101469
sS'Over'
p3312
I119247
sS'Washington'
p3313
I133001
sS'bad'
p3314
I130991
sS'ban'
p3315
I92443
sS'unworthy'
p3316
I104308
sS'zones'
p3317
I114608
sS'decided'
p3318
I131636
sS'Debbie'
p3319
I54950
sS'crossroads'
p3320
I126129
sS'subject'
p3321
I116659
sS'said'
p3322
I132679
sS'Run'
p3323
I19280
sS'04'
p3324
I56373
sS'inappropriate'
p3325
I127817
sS'Took'
p3326
I33892
sS'artificial'
p3327
I61052
sS'globalism'
p3328
I118405
sS'sorts'
p3329
I85433
sS'tolerance'
p3330
I112687
sS'credo'
p3331
I105446
sS'380'
p3332
I114211
sS'385'
p3333
I123134
sS'picking'
p3334
I107055
sS'Otherwise'
p3335
I114105
sS'just--'
p3336
I26012
sS'against'
p3337
I129894
sS'contribution'
p3338
I119771
sS'dislocate'
p3339
I112448
sS'Syrian'
p3340
I107166
sS'appeared'
p3341
I127731
sS'hardworking'
p3342
I124428
sS'aftermath'
p3343
I95839
sS'loaded'
p3344
I26424
sS'puts'
p3345
I122597
sS'basis'
p3346
I95458
sS'Waters'
p3347
I120150
sS'three'
p3348
I131953
sS'Early'
p3349
I123233
sS'commission'
p3350
I116233
sS'trigger'
p3351
I122133
sS'frisk'
p3352
I53451
sS'basic'
p3353
I128726
sS'entered'
p3354
I114081
sS'lovely'
p3355
I127678
sS'threw'
p3356
I103356
sS'website'
p3357
I119139
sS'Georgia'
p3358
I106358
sS'prosperous'
p3359
I131454
sS'locations'
p3360
I106794
sS'hollowed'
p3361
I120660
sS'personally'
p3362
I104229
sS'Marines'
p3363
I122834
sS'exception'
p3364
I685
sS'NAME'
p3365
I23985
sS'Ca'
p3366
I117038
sS'it\xdb\xaas'
p3367
I41612
sS'ugly'
p3368
I50547
sS'near'
p3369
I122492
sS'moratorium'
p3370
I120107
sS'balance'
p3371
I62953
sS'employees'
p3372
I123169
sS'seven'
p3373
I130414
sS'is'
p3374
I133288
sS'it'
p3375
I133349
sS'defeated'
p3376
I57487
sS'strivers'
p3377
I109651
sS'shame'
p3378
I103899
sS'in'
p3379
I133350
sS'80,000'
p3380
I118157
sS'disappear'
p3381
I116827
sS'if'
p3382
I132780
sS'grown'
p3383
I122072
sS'Jeffrey'
p3384
I5599
sS'make'
p3385
I133194
sS'potentially'
p3386
I123609
sS'President'
p3387
I130496
sS'sidelines'
p3388
I118100
sS'Eisenhower'
p3389
I112593
sS'entitled'
p3390
I103803
sS'militaristic'
p3391
I6729
sS'meets'
p3392
I126425
sS'opportunity'
p3393
I132368
sS'kid'
p3394
I82704
sS'programs'
p3395
I123580
sS'settled'
p3396
I54508
sS'failing'
p3397
I132748
sS'80%'
p3398
I100465
sS'Moms'
p3399
I117627
sS'materials'
p3400
I117289
sS'claims'
p3401
I127337
sS'800'
p3402
I130406
sS'yours'
p3403
I38953
sS'left'
p3404
I130817
sS'just'
p3405
I132809
sS'yen'
p3406
I18788
sS'dearly'
p3407
I106056
sS'unfair'
p3408
I120896
sS'Crime'
p3409
I116815
sS'identify'
p3410
I123939
sS'human'
p3411
I107666
sS'facts'
p3412
I130619
sS'yes'
p3413
I121353
sS'yet'
p3414
I129847
sS'candidate'
p3415
I132373
sS'devaluation'
p3416
I91238
sS'Weak'
p3417
I110930
sS'justices'
p3418
I117575
sS'save'
p3419
I131372
sS'Pakistan'
p3420
I38890
sS'sailors'
p3421
I104967
sS'Roberts'
p3422
I41141
sS'background'
p3423
I103801
sS'destroy'
p3424
I128747
sS'dreams'
p3425
I118089
sS'dogcatcher'
p3426
I40387
sS'dignity'
p3427
I111806
sS'Art'
p3428
I2230
sS'unnecessary'
p3429
I121272
sS'arrivals'
p3430
I116125
sS'Are'
p3431
I114690
sS'deal'
p3432
I129161
sS'somehow'
p3433
I132204
sS'dead'
p3434
I128631
sS'punching'
p3435
I79438
sS'--but'
p3436
I25715
sS'dear'
p3437
I131629
sS'Nobody'
p3438
I131821
sS'bold'
p3439
I124791
sS'plot'
p3440
I126432
sS'super'
p3441
I125469
sS'it--'
p3442
I25060
sS'barbarians'
p3443
I106698
sS'magazine'
p3444
I95567
sS'Including'
p3445
I122009
sS'afternoon'
p3446
I26563
sS'automatically'
p3447
I67993
sS'subs'
p3448
I28837
sS'lied'
p3449
I130568
sS'Lehman'
p3450
I8118
sS'intellectual'
p3451
I120981
sS'down'
p3452
I132263
sS'lies'
p3453
I131263
sS'murderers'
p3454
I62424
sS'flying'
p3455
I57068
sS'fraction'
p3456
I82398
sS'NBC'
p3457
I132414
sS'form'
p3458
I121762
sS'immorality'
p3459
I129247
sS'January'
p3460
I107762
sS'failure'
p3461
I122310
sS'220'
p3462
I123692
sS'builds'
p3463
I48020
sS'outsmarting'
p3464
I77189
sS'bounds'
p3465
I126804
sS'delete'
p3466
I60750
sS'strengthening'
p3467
I129355
sS'so--'
p3468
I23848
sS'Twenty'
p3469
I7109
sS'sale'
p3470
I123875
sS'revitalize'
p3471
I113144
sS'fashioned'
p3472
I17033
sS'awhile'
p3473
I110281
sS'agreeing'
p3474
I33196
sS'generally'
p3475
I93487
sS'850,000'
p3476
I59766
sS'savage'
p3477
I105238
sS'felt'
p3478
I102973
sS'fell'
p3479
I13993
sS'authorities'
p3480
I113744
sS'weekend'
p3481
I132641
sS'unlocking'
p3482
I120012
sS'died'
p3483
I110838
sS'billion'
p3484
I130407
sS'prisoners,\xe2\x80\x99'
p3485
I75858
sS'happening'
p3486
I131023
sS'apology'
p3487
I121855
sS'assume'
p3488
I74373
sS'Second'
p3489
I117577
sS'restored'
p3490
I107699
sS'souls'
p3491
I38466
sS'manager'
p3492
I132386
sS'mile'
p3493
I111122
sS'mill'
p3494
I19773
sS'Louisiana'
p3495
I117381
sS'21st'
p3496
I124041
sS'Evening'
p3497
I76804
sS'Normally'
p3498
I86296
sS'show'
p3499
I129983
sS'father'
p3500
I133121
sS'disgusting'
p3501
I131658
sS'answered'
p3502
I112130
sS'finally'
p3503
I131434
sS'praised'
p3504
I127503
sS'suffered'
p3505
I107517
sS'shoot'
p3506
I52621
sS'Where'
p3507
I131482
sS'governments'
p3508
I108240
sS'elevate'
p3509
I93569
sS'did'
p3510
I132806
sS'die'
p3511
I105233
sS'dig'
p3512
I35326
sS'proposals'
p3513
I119649
sS'accidentally'
p3514
I132153
sS'travels'
p3515
I107344
sS'21-year'
p3516
I110989
sS'cetera'
p3517
I66876
sS'talked'
p3518
I129704
sS'dealing'
p3519
I97590
sS'didn\xdb\xaat'
p3520
I41488
sS'wasn\xdb\xaat'
p3521
I40647
sS'Lago'
p3522
I128062
sS'Heritage'
p3523
I123505
sS'eating'
p3524
I90726
sS'targets'
p3525
I81975
sS'adds'
p3526
I121030
sS'10-point'
p3527
I108926
sS'landslides'
p3528
I102618
sS'international'
p3529
I127187
sS'filled'
p3530
I121720
sS'clerk'
p3531
I110994
sS'Times'
p3532
I132427
sS'wait'
p3533
I117075
sS'boy'
p3534
I125559
sS'Violation'
p3535
I33945
sS'Mister'
p3536
I14466
sS'bruises'
p3537
I87371
sS'globalization'
p3538
I129212
sS'suggestion'
p3539
I89448
sS'we\xdb\xaall'
p3540
I37416
sS'elect'
p3541
I126768
sS'When'
p3542
I130366
sS'flexibility'
p3543
I101277
sS'licensing'
p3544
I40489
sS'hotels'
p3545
I37933
sS'everybody'
p3546
I128044
sS'troops'
p3547
I123415
sS'sharper'
p3548
I7897
sS'visit'
p3549
I119137
sS'insider'
p3550
I130116
sS'Massively'
p3551
I100405
sS'Ben'
p3552
I125349
sS'acceptable'
p3553
I68154
sS'Orlando'
p3554
I106801
sS'Hayes'
p3555
I99121
sS'downtown'
p3556
I17325
sS'enthusiasm'
p3557
I41837
sS'effort'
p3558
I128294
sS'fly'
p3559
I53164
sS'Duke'
p3560
I34963
sS'fictionalized'
p3561
I71737
sS'deformed'
p3562
I126942
sS'soul'
p3563
I129370
sS'Pacific'
p3564
I120837
sS'growing'
p3565
I106684
sS'making'
p3566
I129628
sS'arrive'
p3567
I129385
sS'bites'
p3568
I51844
sS'lords'
p3569
I68578
sS'crazy'
p3570
I50378
sS'Putin'
p3571
I122093
sS'Ginsburg'
p3572
I67371
sS'bronze'
p3573
I125510
sS'pure'
p3574
I127241
sS'sworn'
p3575
I133019
sS'map'
p3576
I105158
sS'staying'
p3577
I65237
sS'may'
p3578
I111470
sS'misrepresented'
p3579
I127535
sS'Devastating'
p3580
I65571
sS'designed'
p3581
I123730
sS'Yale'
p3582
I8597
sS'destructive'
p3583
I121985
sS'guys'
p3584
I88525
sS'grow'
p3585
I123577
sS'man'
p3586
I133130
sS'outline'
p3587
I105559
sS'16,000'
p3588
I99865
sS'maybe'
p3589
I132803
sS'borrowing'
p3590
I82165
sS'outpouring'
p3591
I44049
sS'jail'
p3592
I119304
sS'deceive'
p3593
I132838
sS'unleash'
p3594
I121286
sS'basket'
p3595
I34175
sS'tall'
p3596
I112395
sS'talk'
p3597
I132177
sS'cute'
p3598
I28369
sS'seeing'
p3599
I128237
sS'pointed'
p3600
I105125
sS'entity'
p3601
I126743
sS'stability'
p3602
I121587
sS'shake'
p3603
I100524
sS'group'
p3604
I126163
sS'thank'
p3605
I131517
sS'interesting'
p3606
I113239
sS'writers'
p3607
I127596
sS'policy'
p3608
I132852
sS'ours'
p3609
I124411
sS'main'
p3610
I95503
sS'WTO'
p3611
I120909
sS'views'
p3612
I114792
sS'killer'
p3613
I111181
sS'sarcastic'
p3614
I98869
sS'boats'
p3615
I95485
sS'touching'
p3616
I87705
sS'She'
p3617
I133006
sS'killed'
p3618
I113351
sS'attorneys'
p3619
I16081
sS'tenures'
p3620
I5611
sS'arrows'
p3621
I129100
sS'careless'
p3622
I105981
sS'scheme'
p3623
I118606
sS'girl'
p3624
I104629
sS'requesting'
p3625
I123242
sS'living'
p3626
I133319
sS'socialized'
p3627
I30820
sS'Successful'
p3628
I124818
sS'miles'
p3629
I28067
sS'imperative'
p3630
I67358
sS'entitlements'
p3631
I121171
sS'correct'
p3632
I131819
sS'Commerce'
p3633
I120716
sS'earlier'
p3634
I19938
sS'Citibank'
p3635
I27802
sS'Sometimes'
p3636
I125697
sS'mechanisms'
p3637
I114367
sS'advance'
p3638
I132928
sS'entitlement'
p3639
I121141
sS'language'
p3640
I109256
sS'thing'
p3641
I133152
sS'think'
p3642
I132515
sS'first'
p3643
I132253
sS'cheese'
p3644
I37604
sS'fleeing'
p3645
I47901
sS'long'
p3646
I133003
sS'suspended'
p3647
I114444
sS'carry'
p3648
I9168
sS'Probably'
p3649
I115103
sS'sounds'
p3650
I91180
sS'incompetently'
p3651
I115964
sS'interchange'
p3652
I32286
sS'little'
p3653
I131893
sS'anyone'
p3654
I124902
sS'Post'
p3655
I132436
sS'speaking'
p3656
I132265
sS'eyes'
p3657
I103010
sS'inefficient'
p3658
I68962
sS'accurately'
p3659
I55713
sS'broadcast'
p3660
I96350
sS'infiltrate'
p3661
I13693
sS'11'
p3662
I111623
sS'10'
p3663
I123211
sS'13'
p3664
I127081
sS'cracks'
p3665
I114849
sS'15'
p3666
I105290
sS'14'
p3667
I119438
sS'17'
p3668
I102641
sS'16'
p3669
I104823
sS'19'
p3670
I133094
sS'18'
p3671
I119298
sS'begrudgingly'
p3672
I39143
sS'Steinle'
p3673
I113299
sS'protected'
p3674
I106610
sS'were'
p3675
I132923
sS'tractor'
p3676
I18800
sS'gathering'
p3677
I106916
sS'Court'
p3678
I130851
sS'topics'
p3679
I114820
sS'marijuana'
p3680
I93625
sS'voices'
p3681
I117745
sS'conspiracy'
p3682
I129893
sS'Do'
p3683
I128634
sS'efficient'
p3684
I116955
sS'shocked'
p3685
I106315
sS'potential'
p3686
I124551
sS'performance'
p3687
I126513
sS'switching'
p3688
I78442
sS'200'
p3689
I129287
sS'pain'
p3690
I107436
sS'normal'
p3691
I83934
sS'track'
p3692
I122696
sS'Rouge'
p3693
I106380
sS'paid'
p3694
I132273
sS'assault'
p3695
I40976
sS'20%'
p3696
I104087
sS'Keane'
p3697
I38503
sS'20-'
p3698
I80836
sS'especially'
p3699
I130494
sS'refunds'
p3700
I40241
sS'Certainly'
p3701
I80683
sS'untapped'
p3702
I124505
sS'they\xdb\xaave'
p3703
I36398
sS'rating'
p3704
I96879
sS'shot'
p3705
I131036
sS'certification'
p3706
I114659
sS'legalization'
p3707
I93620
sS'corner'
p3708
I107548
sS'takin'
p3709
I24807
sS'deportation'
p3710
I117108
sS'We'
p3711
I133373
sS'treasure'
p3712
I118472
sS'enough'
p3713
I129441
sS'Hulk'
p3714
I78124
sS'black'
p3715
I76470
sS'McClatchy'
p3716
I53839
sS'Fisher'
p3717
I72328
sS'get'
p3718
I132708
sS'contracts'
p3719
I102750
sS'killers'
p3720
I108579
sS'nearly'
p3721
I120457
sS'gee'
p3722
I129516
sS'Right'
p3723
I131823
sS'Angel'
p3724
I117626
sS'went--'
p3725
I26460
sS'morning'
p3726
I128652
sS'doesn\xdb\xaat'
p3727
I40460
sS'stupid'
p3728
I74406
sS'Education'
p3729
I42413
sS'audited'
p3730
I50974
sS'declared'
p3731
I128765
sS'Grant'
p3732
I111012
sS'seas'
p3733
I121449
sS'seat'
p3734
I22557
sS'relative'
p3735
I132305
sS'SuperPacs'
p3736
I8856
sS'eliminating'
p3737
I120140
sS'Hopefully'
p3738
I114851
sS'wonder'
p3739
I132816
sS'Iowa'
p3740
I43517
sS'label'
p3741
I120851
sS'boundaries'
p3742
I20329
sS'pump'
p3743
I7215
sS'reading'
p3744
I129850
sS'checks'
p3745
I116750
sS'infrastructure'
p3746
I124588
sS'august'
p3747
I115525
sS'parent'
p3748
I109903
sS'killing'
p3749
I120594
sS'cervical'
p3750
I29812
sS'tug'
p3751
I36896
sS'dates'
p3752
I115661
sS'trader'
p3753
I18520
sS'trades'
p3754
I34864
sS'according'
p3755
I133016
sS'tour'
p3756
I121856
sS'disappointment'
p3757
I102649
sS'among'
p3758
I124650
sS'6:30'
p3759
I98884
sS'cancer'
p3760
I29816
sS'firewall'
p3761
I98367
sS'Cavuto'
p3762
I56187
sS'dereliction'
p3763
I111843
sS'cancel'
p3764
I113749
sS'custody'
p3765
I111035
sS'unusual'
p3766
I55722
sS'Sure'
p3767
I97562
sS'Pavarotti'
p3768
I79205
sS'capable'
p3769
I127113
sS'mark'
p3770
I16374
sS'borders'
p3771
I131357
sS'offered'
p3772
I116395
sS'laptops'
p3773
I127088
sS'wake'
p3774
I107779
sS'declaration'
p3775
I117044
sS'those'
p3776
I129177
sS'sound'
p3777
I121947
sS'Somehow'
p3778
I4039
sS"n't"
p3779
I130810
sS'Avenue'
p3780
I131775
sS'philosophies'
p3781
I109069
sS'She\xdb\xaas'
p3782
I39961
sS'eventually'
p3783
I73307
sS'middle'
p3784
I119700
sS'sudden'
p3785
I121728
sS'obnoxious'
p3786
I12107
sS'different'
p3787
I132851
sS'harsh'
p3788
I59263
sS'doctor'
p3789
I108949
sS'pay'
p3790
I123846
sS'same'
p3791
I132529
sS'speech'
p3792
I132530
sS'arguments'
p3793
I56456
sS'he\xdb\xaall'
p3794
I40705
sS'stepped'
p3795
I99960
sS'oil'
p3796
I96224
sS'assist'
p3797
I113742
sS'running'
p3798
I119002
sS'disadvantaged'
p3799
I133181
sS'totally'
p3800
I132850
sS'slanders'
p3801
I131270
sS'largely'
p3802
I71690
sS'substantive'
p3803
I110273
sS'solve'
p3804
I112500
sS'Rent'
p3805
I101110
sS'easing'
p3806
I121592
sS'malicious'
p3807
I129989
sS'gangs'
p3808
I116831
sS'money'
p3809
I131619
sS'sights'
p3810
I58932
sS'aspect'
p3811
I70909
sS'reentry'
p3812
I116904
sS'pile'
p3813
I128397
sS'4'
p3814
I120384
sS'income'
p3815
I124152
sS'Wherever'
p3816
I131478
sS'admitting'
p3817
I114781
sS'fizzling'
p3818
I77410
sS'grid'
p3819
I123946
sS'disappointed'
p3820
I94580
sS'Predatory'
p3821
I120511
sS'identifying'
p3822
I113431
sS'disqualifying'
p3823
I122292
sS'serves'
p3824
I116566
sS"'ve"
p3825
I131365
sS'facing'
p3826
I128493
sS'Haass'
p3827
I38487
sS'audience'
p3828
I97752
sS'either'
p3829
I132217
sS'served'
p3830
I124114
sS'Democracy'
p3831
I123863
sS'moving'
p3832
I118187
sS'Amazing'
p3833
I125579
sS'Dr.'
p3834
I125335
sS'images'
p3835
I104964
sS'New'
p3836
I132425
sS'matching'
p3837
I119768
sS'civilly'
p3838
I132160
sS'explode'
p3839
I44431
sS'confirm'
p3840
I127351
sS'Men'
p3841
I106722
sS'Assimilation'
p3842
I116194
sS'critical'
p3843
I133199
sS'seconds'
p3844
I62305
sS'broken'
p3845
I118310
sS'Vietnam'
p3846
I70611
sS'Wasserman'
p3847
I60076
sS'roaming'
p3848
I104550
sS'manufacturer'
p3849
I81681
sS'conducting'
p3850
I115531
sS'stations'
p3851
I113612
sS'violence'
p3852
I122375
sS'Trade'
p3853
I120973
sS'pockets'
p3854
I126312
sS'roam'
p3855
I113031
sS'road'
p3856
I77634
sS'That\xdb\xaas'
p3857
I39562
sS'quietly'
p3858
I65008
sS'decimated'
p3859
I52689
sS'bricklayers'
p3860
I109447
sS'whites'
p3861
I118886
sS'skilled'
p3862
I111962
sS'blessed'
p3863
I70692
sS'strip'
p3864
I106183
sS'pharmaceutical'
p3865
I77227
sS'galvanize'
p3866
I22772
sS'Obama'
p3867
I132501
sS'Treaty'
p3868
I85839
sS'arranged'
p3869
I99422
sS'USA'
p3870
I107821
sS'deep'
p3871
I122640
sS'general'
p3872
I110655
sS'file'
p3873
I31684
sS'lifetime'
p3874
I128607
sS'fill'
p3875
I64654
sS'again'
p3876
I131466
sS'amendments'
p3877
I67443
sS'field'
p3878
I122893
sS'cleanup'
p3879
I17251
sS'4,000'
p3880
I104815
sS'students'
p3881
I111291
sS'important'
p3882
I132619
sS'6,000-page'
p3883
I11017
sS'decorated'
p3884
I9305
sS'assets'
p3885
I71112
sS'casts'
p3886
I23002
sS'Yeah'
p3887
I99412
sS'Year'
p3888
I101889
sS'12'
p3889
I127734
sS'starting'
p3890
I132335
sS'represent'
p3891
I112264
sS'colleges'
p3892
I93239
sS'liar'
p3893
I69723
sS'forget'
p3894
I113944
sS'vile'
p3895
I129075
sS'Workers'
p3896
I126244
sS'dollar'
p3897
I121131
sS'Station'
p3898
I90890
sS'talks'
p3899
I122295
sS'children'
p3900
I133202
sS'laid'
p3901
I121838
sS'modernization'
p3902
I124005
sS'destroyers'
p3903
I123727
sS'--John'
p3904
I25771
sS'premium'
p3905
I30891
sS'straightforward'
p3906
I104318
sS'sitting'
p3907
I132262
sS'bleach'
p3908
I60334
sS'Lyin\xdb\xaa'
p3909
I41200
sS'difference'
p3910
I105419
sS'mothers'
p3911
I130762
sS'drugged'
p3912
I88500
sS'celebrity'
p3913
I87140
sS'economically'
p3914
I11226
sS'20th'
p3915
I107763
sS'grabs'
p3916
I87759
sS'Actually'
p3917
I99464
sS'winds'
p3918
I128360
sS'Only'
p3919
I123260
sS'lawyer'
p3920
I88791
sS'further'
p3921
I121072
sS'misrepresent'
p3922
I15964
sS'stood'
p3923
I36927
sS'brackets'
p3924
I119506
sS'public'
p3925
I132883
sS'movement'
p3926
I130752
sS'NFL'
p3927
I85725
sS'Patti'
p3928
I53819
sS'disastrous'
p3929
I126167
sS'standard'
p3930
I118282
sS'fantasies'
p3931
I37569
sS'search'
p3932
I115533
sS'prosecutors'
p3933
I106468
sS'significantly'
p3934
I113613
sS'airport'
p3935
I76126
sS'published'
p3936
I128096
sS'mentions'
p3937
I71706
sS'Canal'
p3938
I122495
sS'Constitution'
p3939
I130867
sS'armed'
p3940
I96780
sS'Europe'
p3941
I123638
sS'Core'
p3942
I130969
sS'wiped'
p3943
I21341
sS'two'
p3944
I129684
sS'Walls'
p3945
I14806
sS'impressionable'
p3946
I12943
sS'libel'
p3947
I80370
sS'Boeing'
p3948
I75943
sS'Kennedy'
p3949
I51569
sS'staggering'
p3950
I97273
sS'landed'
p3951
I110143
sS'particular'
p3952
I116404
sS'nineteen'
p3953
I15791
sS'Wouldn\xdb\xaat'
p3954
I41559
sS'town'
p3955
I126371
sS'none'
p3956
I124595
sS'hour'
p3957
I112872
sS'recall'
p3958
I122231
sS'maniac'
p3959
I43162
sS'guards'
p3960
I46707
sS'remain'
p3961
I128488
sS'pressing'
p3962
I53961
sS'abandon'
p3963
I106929
sS'National'
p3964
I123479
sS'gravely'
p3965
I107339
sS'share'
p3966
I122705
sS'minimum'
p3967
I123449
sS'numbers'
p3968
I126222
sS'sharp'
p3969
I125626
sS'Cause'
p3970
I46165
sS'!'
p3971
I121551
sS'needs'
p3972
I130361
sS'acts'
p3973
I68569
sS'profiting'
p3974
I120557
sS'Chattanooga'
p3975
I106785
sS'Don'
p3976
I125064
sS'We\xdb\xaare'
p3977
I41764
sS'Nebraska'
p3978
I104617
sS'blood'
p3979
I102081
sS'coming'
p3980
I133115
sS'response'
p3981
I33676
sS'bleak'
p3982
I22528
sS'offenses'
p3983
I115291
sS'toughening'
p3984
I89006
sS'Stevens'
p3985
I66207
sS'tweeting'
p3986
I66254
sS'coal'
p3987
I120196
sS'responsibility'
p3988
I102058
sS'playing'
p3989
I83014
sS'infant'
p3990
I56039
sS'appeals'
p3991
I40004
sS'through'
p3992
I132814
sS'Income'
p3993
I119755
sS'existence'
p3994
I115000
sS'suffer'
p3995
I105861
sS'Texas'
p3996
I32049
sS'24'
p3997
I1958
sS'25'
p3998
I119511
sS'26'
p3999
I127990
sS'27'
p4000
I122789
sS'20'
p4001
I130422
sS'21'
p4002
I110877
sS'22'
p4003
I125406
sS'23'
p4004
I123459
sS'energies'
p4005
I117248
sS'28'
p4006
I86385
sS'late'
p4007
I125038
sS'2%'
p4008
I123278
sS'messes'
p4009
I10587
sS'curfews'
p4010
I44157
sS'hurting'
p4011
I111371
sS'good'
p4012
I133054
sS'seeking'
p4013
I116884
sS'Bay'
p4014
I93467
sS'afflicts'
p4015
I104253
sS'Bad'
p4016
I75111
sS'struggling'
p4017
I107814
sS'mystery'
p4018
I113525
sS'easily'
p4019
I122168
sS'pregnant'
p4020
I127798
sS'Globe'
p4021
I115269
sS'hell.\xdc\x89'
p4022
I44270
sS'someone'
p4023
I119835
sS'Scalia'
p4024
I109057
sS'out'
p4025
I133168
sS'notes'
p4026
I123446
sS'harm'
p4027
I120731
sS'everyone'
p4028
I132939
sS'mental'
p4029
I16926
sS'house'
p4030
I28655
sS'energy'
p4031
I123352
sS'hard'
p4032
I132667
sS'idea'
p4033
I118650
sS'Build'
p4034
I22734
sS'fist'
p4035
I71557
sS'insurance'
p4036
I61379
sS'cynicism'
p4037
I118245
sS'funding'
p4038
I123175
sS'discouraging'
p4039
I82958
sS'print'
p4040
I127488
sS'Ukraine'
p4041
I82292
sS'Protect'
p4042
I11491
sS'bully'
p4043
I115191
sS'circumstance'
p4044
I96862
sS'enforcing'
p4045
I120955
sS'difficulty'
p4046
I10081
sS'giveaway'
p4047
I75802
sS'members'
p4048
I124079
sS'impeached'
p4049
I59750
sS'backed'
p4050
I100596
sS'reparations'
p4051
I45705
sS'laughable'
p4052
I24977
sS'beginning'
p4053
I125817
sS'benefits'
p4054
I129961
sS'revival'
p4055
I50487
sS'computers'
p4056
I55113
sS'instances'
p4057
I131606
sS'done'
p4058
I130520
sS'embraced'
p4059
I105787
sS'wages'
p4060
I120663
sS'Okay'
p4061
I100082
sS'Crumbling'
p4062
I118346
sS'5th'
p4063
I44801
sS'least'
p4064
I130537
sS'militant'
p4065
I88997
sS'Environmental'
p4066
I66801
sS'regulation'
p4067
I121085
sS'assumption'
p4068
I22902
sS'statement'
p4069
I98678
sS'favorably'
p4070
I3484
sS'part'
p4071
I130161
sS'favorable'
p4072
I102917
sS'doctors'
p4073
I31109
sS'believe'
p4074
I130625
sS'Haiti'
p4075
I132963
sS'carnage'
p4076
I58959
sS'gotten'
p4077
I128972
sS'Partnership'
p4078
I120838
sS'State'
p4079
I127040
sS'youth'
p4080
I104769
sS'supposed'
p4081
I132038
sS'treated'
p4082
I131165
sS'derivative'
p4083
I21190
sS'nominee'
p4084
I16260
sS'meltdown'
p4085
I30692
sS'aged'
p4086
I119297
sS'orders'
p4087
I113752
sS'built'
p4088
I131803
sS'Power'
p4089
I120167
sS'depending'
p4090
I92264
sS'Virginia'
p4091
I67119
sS'Arab'
p4092
I6296
sS'majority'
p4093
I114741
sS'build'
p4094
I124703
sS'Hawaii'
p4095
I22228
sS'Governor'
p4096
I32992
sS'serviced'
p4097
I31107
sS'depths'
p4098
I129244
sS'most'
p4099
I133027
sS'Savings'
p4100
I121195
sS'Common'
p4101
I130968
sS'significant'
p4102
I123702
sS'services'
p4103
I33162
sS'extremely'
p4104
I105980
sS'Egypt'
p4105
I122480
sS'humanitarian'
p4106
I73834
sS'charitable'
p4107
I109505
sS'weigh'
p4108
I117207
sS'479,000'
p4109
I122822
sS'Pentag'
p4110
I85230
sS'joining'
p4111
I110811
sS'sector'
p4112
I124019
sS'particularly'
p4113
I101541
sS'rebels'
p4114
I74074
sS'scattered'
p4115
I97749
sS'businesses'
p4116
I129969
sS'carefully'
p4117
I104358
sS'fine'
p4118
I114403
sS'find'
p4119
I121216
sS'Kathy'
p4120
I59704
sS'nervous'
p4121
I34185
sS'unhappy'
p4122
I94501
sS'freedoms'
p4123
I131368
sS'Caterpillar'
p4124
I18799
sS'8'
p4125
I131437
sS'courage'
p4126
I127419
sS'breast'
p4127
I29815
sS'theft'
p4128
I120930
sS'collapsed'
p4129
I118148
sS'Anyway'
p4130
I99315
sS'doubled'
p4131
I130412
sS'common'
p4132
I131763
sS'individual'
p4133
I128108
sS'surrendered'
p4134
I118636
sS'expert'
p4135
I75452
sS'please'
p4136
I132608
sS'powerhouse'
p4137
I124038
sS'smallest'
p4138
I122744
sS'burned'
p4139
I76577
sS'historical'
p4140
I116263
sS'aircraft'
p4141
I123501
sS'Dana'
p4142
I7083
sS'Detective'
p4143
I113337
sS'radicals'
p4144
I106753
sS'powers'
p4145
I126445
sS'annual'
p4146
I120449
sS'foreign'
p4147
I126177
sS'they\xdb\xaare'
p4148
I38310
sS'Mosul'
p4149
I73692
sS'Yep'
p4150
I98220
sS'Yes'
p4151
I99128
sS'Yet'
p4152
I122038
sS'Sidney'
p4153
I66222
sS'supply'
p4154
I100460
sS'simple'
p4155
I127719
sS'won\xdb\xaat'
p4156
I38070
sS'simply'
p4157
I126119
sS'throughout'
p4158
I102169
sS'Disney'
p4159
I42239
sS'Costa'
p4160
I80300
sS'raise'
p4161
I87469
sS'create'
p4162
I133270
sS'secret'
p4163
I126427
sS'dropping'
p4164
I112583
sS'intrusive'
p4165
I120145
sS'meeting'
p4166
I123272
sS'Princeton'
p4167
I8602
sS'gas'
p4168
I66929
sS'understand'
p4169
I130670
sS'prices'
p4170
I91395
sS'evangelical'
p4171
I109141
sS'strictest'
p4172
I15563
sS'solid'
p4173
I45748
sS'bill'
p4174
I119848
sS'elections'
p4175
I128615
sS'replaced'
p4176
I130256
sS'fun'
p4177
I133048
sS'Khan'
p4178
I61930
sS'century'
p4179
I124042
sS'violently'
p4180
I52987
sS'encountered'
p4181
I113088
sS'Eleven'
p4182
I17612
sS'itself'
p4183
I129924
sS'arenas'
p4184
I126664
sS'emphasize'
p4185
I121960
sS'development'
p4186
I90737
sS'currencies'
p4187
I43909
sS'keys'
p4188
I120010
sS'yesterday'
p4189
I121668
sS'desks'
p4190
I113599
sS'--language--'
p4191
I25022
sS'purpose'
p4192
I115721
sS'task'
p4193
I124483
sS'generals\xe2\x80\x99'
p4194
I96383
sS'spent'
p4195
I124496
sS'flags'
p4196
I12679
sS'swiss'
p4197
I26799
sS'entry'
p4198
I120584
sS'Gruber'
p4199
I61455
sS'Klux'
p4200
I79024
sS'ludicrous'
p4201
I131272
sS'shape'
p4202
I128773
sS'openly'
p4203
I109240
sS'circling'
p4204
I95468
sS'alternative'
p4205
I66864
sS'dishonesty'
p4206
I46797
sS'letting'
p4207
I62479
sS'cut'
p4208
I122930
sS'source'
p4209
I127501
sS'excited'
p4210
I128232
sS'Icon'
p4211
I5913
sS'confession'
p4212
I132655
sS'adversaries'
p4213
I123576
sS'Did'
p4214
I88122
sS'big'
p4215
I127555
sS'bid'
p4216
I43491
sS'matters'
p4217
I117346
sS'bit'
p4218
I132097
sS'knock'
p4219
I101116
sS'retake'
p4220
I105255
sS'glove'
p4221
I83906
sS'wall\xdb\xaas'
p4222
I37118
sS'foolish'
p4223
I129598
sS'often'
p4224
I114980
sS'Gulf'
p4225
I114594
sS'absolutely'
p4226
I132518
sS'back'
p4227
I132115
sS'delegation'
p4228
I83522
sS'strongest'
p4229
I56593
sS'examples'
p4230
I20226
sS'server'
p4231
I123840
sS'ourselves'
p4232
I109286
sS'contacts'
p4233
I90814
sS'affects'
p4234
I81070
sS'decision'
p4235
I129630
sS'reimbursing'
p4236
I91662
sS'per'
p4237
I123694
sS'eliminate'
p4238
I123086
sS'Nothing'
p4239
I124887
sS'Fifteen'
p4240
I87389
sS'invade'
p4241
I122125
sS'laughing'
p4242
I132901
sS'308'
p4243
I122851
sS'Boy'
p4244
I125553
sS'taxing'
p4245
I119963
sS'300'
p4246
I36339
sS'example-'
p4247
I95968
sS'David'
p4248
I125179
sS'unenthusiastic'
p4249
I83497
sS'hostages'
p4250
I57346
sS'Davis'
p4251
I113360
sS'Bob'
p4252
I80299
sS'30%'
p4253
I119825
sS'Latinos'
p4254
I118888
sS'deductibles'
p4255
I61231
sS'extensions'
p4256
I93161
sS'Captain'
p4257
I61929
sS'pollution'
p4258
I45340
sS'aliens'
p4259
I115137
sS'bankruptcy'
p4260
I8395
sS'pronunciation'
p4261
I6246
sS'forward'
p4262
I128679
sS'Come'
p4263
I132565
sS'opponent'
p4264
I132995
sS'invite'
p4265
I122648
sS'immigration'
p4266
I129165
sS'hopes'
p4267
I43553
sS'clips'
p4268
I71381
sS"'re"
p4269
I131340
sS'planes'
p4270
I121436
sS'Perhaps'
p4271
I119289
sS'stripped'
p4272
I126368
sS'consulted'
p4273
I64581
sS'necks'
p4274
I80023
sS'dragging'
p4275
I78970
sS'prevail'
p4276
I116813
sS'Mar'
p4277
I128058
sS'fracking'
p4278
I91324
sS'Israelis'
p4279
I45195
sS'Medal'
p4280
I125408
sS'Man'
p4281
I98670
sS'explaining'
p4282
I81110
sS'gross'
p4283
I126227
sS'prepared'
p4284
I122662
sS'Carrier'
p4285
I101623
sS'desert'
p4286
I122490
sS'boyfriends'
p4287
I13247
sS'likeliest'
p4288
I110728
sS'vehicles'
p4289
I82626
sS'wards'
p4290
I16941
sS'2003'
p4291
I14932
sS'2000'
p4292
I120679
sS'2001'
p4293
I115529
sS'2006'
p4294
I68749
sS'2004'
p4295
I14934
sS'rallies'
p4296
I128149
sS'2008'
p4297
I115279
sS'2009'
p4298
I122826
sS'enrichment'
p4299
I102726
sS'evidence'
p4300
I128239
sS'vicious'
p4301
I133334
sS'15,000'
p4302
I120100
sS'graves'
p4303
I73157
sS'Business'
p4304
I39654
sS'Means'
p4305
I113666
sS'Netanyahu'
p4306
I57428
sS'Kellogg'
p4307
I125377
sS'mowed'
p4308
I106728
sS'else.\xe2\x80\x99'
p4309
I84205
sS'  '
p4310
I95332
sS'550%'
p4311
I107163
sS'us--'
p4312
I25806
sS'putting'
p4313
I125086
sS'entire'
p4314
I124498
sS'shock'
p4315
I78130
sS'Defense'
p4316
I123783
sS'ceasefire'
p4317
I33211
sS'warheads'
p4318
I69526
sS'unsatisfied'
p4319
I51802
sS'Howard'
p4320
I83484
sS'Long'
p4321
I37878
sS'depression'
p4322
I42980
sS'giving'
p4323
I97667
sS'assisted'
p4324
I115518
sS'practices'
p4325
I120513
sS'access'
p4326
I106070
sS'21,000'
p4327
I77583
sS'body'
p4328
I96742
sS'sins'
p4329
I132675
sS'nonexistent'
p4330
I65668
sS'healing'
p4331
I54147
sS'others'
p4332
I129878
sS'safer'
p4333
I103332
sS'extreme'
p4334
I114414
sS'39'
p4335
I132684
sS'38'
p4336
I83077
sS'talent'
p4337
I124680
sS'Chinese'
p4338
I102906
sS'33'
p4339
I119513
sS'32'
p4340
I74285
sS'31'
p4341
I123408
sS'30'
p4342
I132763
sS'37'
p4343
I102631
sS'36'
p4344
I123439
sS'35'
p4345
I116503
sS'34'
p4346
I119300
sS'honor'
p4347
I133064
sS'named'
p4348
I113335
sS'speeches'
p4349
I101677
sS'private'
p4350
I132854
sS'decrease'
p4351
I116842
sS'privately'
p4352
I25345
sS'scandal'
p4353
I108970
sS'staple'
p4354
I46014
sS'Nice'
p4355
I36706
sS'themselves'
p4356
I129154
sS'trait'
p4357
I67313
sS'Honest'
p4358
I62682
sS'ashamed'
p4359
I129790
sS'account'
p4360
I128005
sS'obvious'
p4361
I33787
sS'industrial'
p4362
I82489
sS'closing'
p4363
I100898
sS'F.'
p4364
I17122
sS'reserves'
p4365
I96225
sS'recklessly'
p4366
I113179
sS'daring'
p4367
I124793
sS'democracy'
p4368
I126855
sS'regions'
p4369
I114353
sS'stock'
p4370
I50517
sS'buildings'
p4371
I91866
sS'endorsements'
p4372
I86823
sS'incompetence'
p4373
I105840
sS'philosophy'
p4374
I100100
sS'bombers'
p4375
I122799
sS'friendlier'
p4376
I10428
sS'bind'
p4377
I124298
sS'lines'
p4378
I124153
sS'chief'
p4379
I123396
sS'Tennessee'
p4380
I106787
sS'Americanism'
p4381
I118430
sS'furious'
p4382
I60288
sS'lined'
p4383
I126659
sS'Waleed'
p4384
I93305
sS'wedding'
p4385
I60531
sS'lands'
p4386
I124347
sS'I\xe2\x80\x98ve'
p4387
I77542
sS'industries'
p4388
I118536
sS'bridges'
p4389
I121416
sS'negotiated'
p4390
I115969
sS'LaGuardia'
p4391
I90898
sS'300,000'
p4392
I113074
sS'lo'
p4393
I128900
sS'labor'
p4394
I118249
sS'Director'
p4395
I132644
sS'willing'
p4396
I124849
sS'16,500'
p4397
I113582
sS'criminal'
p4398
I130217
sS'<'
p4399
I118163
sS'dad'
p4400
I109373
sS'greater'
p4401
I98084
sS'mention'
p4402
I100607
sS'cutting'
p4403
I100348
sS'Robin'
p4404
I27775
sS'applicants'
p4405
I114631
sS'airports'
p4406
I121422
sS'Unemployment'
p4407
I76490
sS'warned'
p4408
I130038
sS'identified'
p4409
I128023
sS'Fed'
p4410
I50648
sS'lie'
p4411
I130555
sS'3,000'
p4412
I131032
sS'From'
p4413
I95559
sS'parties'
p4414
I102358
sS'accumulated'
p4415
I21898
sS'sexual'
p4416
I115251
sS'defend'
p4417
I133265
sS'messenger'
p4418
I91709
sS'red'
p4419
I105029
sS'Apprentice'
p4420
I127770
sS'58%'
p4421
I104765
sS'We\xdb\xaave'
p4422
I38641
sS'Senator'
p4423
I86828
sS'likelihood'
p4424
I116272
sS'bleed'
p4425
I111100
sS'allies'
p4426
I128526
sS'ruins'
p4427
I122421
sS'qualification'
p4428
I2624
sS'barriers'
p4429
I28080
sS'south'
p4430
I40378
sS'finest'
p4431
I120759
sS'2,000'
p4432
I127195
sS'Administration'
p4433
I122088
sS'embarrassed'
p4434
I129788
sS'improvements'
p4435
I110563
sS'puppet'
p4436
I105651
sS'reached'
p4437
I105957
sS'ancient'
p4438
I116630
sS'sadly'
p4439
I128904
sS'Medicaid'
p4440
I61589
sS'Lincoln'
p4441
I132058
sS'completed'
p4442
I115349
sS'nobody'
p4443
I131811
sS'environmental'
p4444
I45339
sS'loved'
p4445
I131567
sS'Ladies'
p4446
I103978
sS'loves'
p4447
I132507
sS'visited'
p4448
I118771
sS'Lastly'
p4449
I107089
sS'waterboarding'
p4450
I38269
sS'comfortable'
p4451
I109442
sS'unlikely'
p4452
I95316
sS'have'
p4453
I133361
sS'Pam'
p4454
I99827
sS'Goldman'
p4455
I62635
sS'incentive'
p4456
I77326
sS'323'
p4457
I115272
sS'320'
p4458
I123187
sS'concerns'
p4459
I110662
sS'unless'
p4460
I126392
sS'procure'
p4461
I123724
sS'secretively'
p4462
I65160
sS'Without'
p4463
I40367
sS'eight'
p4464
I125784
sS'sophisticated'
p4465
I48049
sS'would\xe2\x80\x99ve'
p4466
I104075
sS'Some'
p4467
I131697
sS'Thank--'
p4468
I25497
sS'1,000'
p4469
I99432
sS'Donald'
p4470
I133244
sS'occasion'
p4471
I109801
sS'normally'
p4472
I10813
sS'slandered'
p4473
I130573
sS'galvanizing'
p4474
I22661
sS'supported'
p4475
I108214
sS'traitor'
p4476
I1980
sS'supporter'
p4477
I78840
sS'staff'
p4478
I123398
sS'communism'
p4479
I121886
sS'grabbed'
p4480
I94890
sS'knowledge'
p4481
I54792
sS'Vanessa'
p4482
I125129
sS'madman'
p4483
I15094
sS'controls'
p4484
I122455
sS'York'
p4485
I132426
sS'beat'
p4486
I115195
sS'thrived'
p4487
I8504
sS'bear'
p4488
I82261
sS'timing'
p4489
I5887
sS'humanely'
p4490
I17205
sS'areas'
p4491
I81289
sS'calling'
p4492
I49983
sS'fixed'
p4493
I118314
sS'untrue'
p4494
I58185
sS'exists'
p4495
I115728
sS'national'
p4496
I121948
sS'intensity'
p4497
I4978
sS'Justices'
p4498
I121304
sS'Rickles'
p4499
I83968
sS'phases'
p4500
I83199
sS'reform'
p4501
I121725
sS'brunt'
p4502
I82264
sS'routine'
p4503
I63102
sS'progress'
p4504
I104412
sS'boundary'
p4505
I61417
sS'weak'
p4506
I110927
sS'deliver'
p4507
I131191
sS'Silicon'
p4508
I37428
sS'outer'
p4509
I76391
sS'freely'
p4510
I113030
sS'taking'
p4511
I132148
sS'equal'
p4512
I44224
sS'busted'
p4513
I132739
sS'hamstring'
p4514
I122877
sS'otherwise'
p4515
I40710
sS'comment'
p4516
I120625
sS'relevant'
p4517
I123924
sS'and--'
p4518
I24718
sS'important--'
p4519
I23773
sS'laugh'
p4520
I132094
sS'earning'
p4521
I119836
sS'flourishing'
p4522
I118343
sS'pouring'
p4523
I118336
sS'tremendous'
p4524
I125415
sS'Brooklyn'
p4525
I76347
sS'Communities'
p4526
I113134
sS'proposal'
p4527
I121188
sS'define'
p4528
I27175
sS'Center'
p4529
I115803
sS'airplanes'
p4530
I44544
sS'essentially'
p4531
I129753
sS'finished'
p4532
I66560
sS'Honestly'
p4533
I126458
sS'homes'
p4534
I131588
sS'plain'
p4535
I104736
sS'value'
p4536
I28487
sS'General'
p4537
I129874
sS'promoted'
p4538
I120636
sS'Jacobs'
p4539
I38516
sS'almost'
p4540
I131054
sS'captors'
p4541
I104976
sS'helped'
p4542
I124941
sS'claimed'
p4543
I122227
sS'partner'
p4544
I126090
sS'inspector'
p4545
I75479
sS'Beach'
p4546
I72283
sS'stablemates'
p4547
I11308
sS')'
p4548
I113148
sS'administration'
p4549
I129716
sS'prognostications'
p4550
I81374
sS'Suez'
p4551
I122494
sS'Panel'
p4552
I123481
sS'injured'
p4553
I106395
sS'material'
p4554
I128577
sS'reporting'
p4555
I79108
sS'Navy'
p4556
I123713
sS'discredited'
p4557
I128113
sS'sisters'
p4558
I124987
sS'judgment'
p4559
I114007
sS'Order'
p4560
I52349
sS'insure'
p4561
I114860
sS'recourse'
p4562
I78346
sS'center'
p4563
I127563
sS'Senate'
p4564
I114192
sS'weapon'
p4565
I126695
sS'there\xdb\xaas'
p4566
I39305
sS'sets'
p4567
I91614
sS'position'
p4568
I129710
sS'He\xdb\xaas'
p4569
I40563
sS'usual'
p4570
I107048
sS'arming'
p4571
I64455
sS'nicknames'
p4572
I94860
sS'Verify'
p4573
I115686
sS'executive'
p4574
I113851
sS'domestic'
p4575
I126228
sS'books'
p4576
I133341
sS'Fourth'
p4577
I132638
sS'seats'
p4578
I78739
sS'tough'
p4579
I131703
sS'abolish'
p4580
I109093
sS'Brigade'
p4581
I123409
sS'ads'
p4582
I84469
sS'bragging'
p4583
I35576
sS'demographic'
p4584
I102625
sS'recommending'
p4585
I96761
sS'rebate'
p4586
I119764
sS'add'
p4587
I120986
sS'citizen'
p4588
I124344
sS'285'
p4589
I122771
sS'ought'
p4590
I83001
sS'tests'
p4591
I114628
sS'displaced'
p4592
I121988
sS'like'
p4593
I133293
sS'success'
p4594
I130302
sS'journalism'
p4595
I128439
sS'admitted'
p4596
I116109
sS'works'
p4597
I133013
sS'holier'
p4598
I54344
sS'alive'
p4599
I110844
sS'proper'
p4600
I115430
sS'Terrorism'
p4601
I121791
sS'happens'
p4602
I133107
sS'Mike'
p4603
I125899
sS'encouraging'
p4604
I90428
sS'trimmed'
p4605
I123229
sS'assuming'
p4606
I22788
sS'chains'
p4607
I80020
sS'stellar'
p4608
I78998
sS'Planned'
p4609
I29907
sS'although'
p4610
I85417
sS'periodically'
p4611
I116612
sS'jobless'
p4612
I130797
sS'about'
p4613
I133338
sS'Now--'
p4614
I26264
sS'certainty'
p4615
I123014
sS'Japan'
p4616
I123296
sS'introduced'
p4617
I131592
sS'Mayor'
p4618
I131484
sS'preexisting'
p4619
I30503
sS'Two'
p4620
I104775
sS'billions'
p4621
I120419
sS'Trojan'
p4622
I129271
sS'guard'
p4623
I67077
sS'awarded'
p4624
I116961
sS'biggest'
p4625
I128083
sS'November'
p4626
I117894
sS'globe'
p4627
I105057
sS'buy'
p4628
I91815
sS'brand'
p4629
I120816
sS'but'
p4630
I133399
sS'repeated'
p4631
I79755
sS'wealthier'
p4632
I80576
sS'partially'
p4633
I97681
sS'wise'
p4634
I98189
sS'Wall'
p4635
I72559
sS'dangerous'
p4636
I122080
sS'minutes'
p4637
I129685
sS'Grandpa'
p4638
I92980
sS'deaths'
p4639
I113711
sS'semi-'
p4640
I49136
sS'periods'
p4641
I1946
sS'relates'
p4642
I57182
sS'shooting'
p4643
I89076
sS'80'
p4644
I75053
sS'49'
p4645
I106805
sS'46'
p4646
I32145
sS'corporation'
p4647
I19529
sS'44'
p4648
I25970
sS'45'
p4649
I65928
sS'42'
p4650
I25999
sS'43'
p4651
I104918
sS'40'
p4652
I120399
sS'Pennsylvania'
p4653
I126346
sS'bleachbit'
p4654
I122179
sS'4%'
p4655
I119180
sS'Pataki'
p4656
I2666
sS'drugging'
p4657
I88506
sS'weaponry'
p4658
I15014
sS'\xe2\x80\xa6'
p4659
I133283
sS'\xe2\x80\x93'
p4660
I132981
sS'\xe2\x80\x94'
p4661
I132847
sS'\xe2\x80\x98'
p4662
I84193
sS'\xe2\x80\x9d'
p4663
I132770
sS'\xe2\x80\x9c'
p4664
I132750
sS'CEO'
p4665
I5614
sS'8th'
p4666
I111441
sS'Pryor'
p4667
I23556
sS'levers'
p4668
I126076
sS'hats'
p4669
I97702
sS'facilities'
p4670
I123584
sS'elites'
p4671
I111596
sS'hate'
p4672
I132888
sS'poorly'
p4673
I119455
sS'feeding'
p4674
I9371
sS'Mitt'
p4675
I94771
sS'poorest'
p4676
I119999
sS'whatsoever'
p4677
I112986
sS'under'
p4678
I130425
sS'Nasty'
p4679
I25619
sS'pride'
p4680
I109353
sS'regrets'
p4681
I105114
sS'risk'
p4682
I111290
sS'rise'
p4683
I131260
sS'every'
p4684
I131235
sS'anemic'
p4685
I126224
sS'school'
p4686
I111294
sS'cause'
p4687
I108535
sS'conceive'
p4688
I97207
sS'guiding'
p4689
I121736
sS'Go'
p4690
I104375
sS'leaders'
p4691
I133304
sS'Mitch'
p4692
I23610
sS'fairness'
p4693
I110353
sS'estimates'
p4694
I120173
sS'direct'
p4695
I120712
sS'surrounding'
p4696
I55903
sS'electricians'
p4697
I109452
sS'street'
p4698
I116325
sS'friendships'
p4699
I121764
sS'estimated'
p4700
I123127
sS'blue'
p4701
I94176
sS'beaten'
p4702
I111173
sS'liberty'
p4703
I133267
sS'This'
p4704
I133137
sS'endorse'
p4705
I86843
sS'seeks'
p4706
I110689
sS'kicked'
p4707
I132709
sS'hundreds'
p4708
I122473
sS'ethanol'
p4709
I43528
sS'represented'
p4710
I59681
sS'path'
p4711
I122612
sS'generals'
p4712
I125383
sS'forum'
p4713
I33924
sS'Gradual'
p4714
I121724
sS'leaves'
p4715
I121102
sS'changed'
p4716
I100633
sS'changes'
p4717
I125232
sS'punishment'
p4718
I92794
sS'biometric'
p4719
I115336
sS'offs'
p4720
I63699
sS'implode'
p4721
I15465
sS'feelings'
p4722
I92966
sS'patience'
p4723
I105832
sS'Tens'
p4724
I27494
sS'actions'
p4725
I121685
sS'would'
p4726
I133364
sS'hospital'
p4727
I108951
sS'June'
p4728
I104016
sS'asset'
p4729
I56594
sS'assessment'
p4730
I104319
sS'slaughtered'
p4731
I73816
sS'phone'
p4732
I101758
sS'excellent'
p4733
I75748
sS'outdated'
p4734
I116576
sS'must'
p4735
I124781
sS'me'
p4736
I133238
sS'Crazy'
p4737
I29700
sS'join'
p4738
I117630
sS'tremendously'
p4739
I125184
sS'entertainer'
p4740
I2467
sS'my'
p4741
I133120
sS'shook'
p4742
I99490
sS'loosen'
p4743
I80098
sS'estate'
p4744
I131510
sS'times'
p4745
I132685
sS'guarantee'
p4746
I108937
sS'end'
p4747
I131411
sS'Muslims'
p4748
I88686
sS'widespread'
p4749
I127035
sS'III'
p4750
I81054
sS'badly'
p4751
I132323
sS'Essentially'
p4752
I56178
sS'description'
p4753
I130632
sS'mess'
p4754
I125632
sS'imaginable'
p4755
I115261
sS'demanding'
p4756
I117326
sS'1,500'
p4757
I71421
sS'Yorker'
p4758
I83637
sS'stronghold'
p4759
I32186
sS'enter'
p4760
I129259
sS'Beyond'
p4761
I115476
sS'executed'
p4762
I106328
sS'interpretation'
p4763
I5523
sS'over'
p4764
I133122
sS'fall'
p4765
I122698
sS'Here'
p4766
I121025
sS'writing'
p4767
I100855
sS'destroyed'
p4768
I129882
sS'400'
p4769
I81496
sS'H1B.'
p4770
I41984
sS'tourism'
p4771
I91217
sS'Dwight'
p4772
I27141
sS'Four'
p4773
I59651
sS'steelworkers'
p4774
I121405
sS'victory'
p4775
I124947
sS'each'
p4776
I132354
sS'lasting'
p4777
I93915
sS'signing'
p4778
I104986
sS'Anyone'
p4779
I126924
sS'KASICH'
p4780
I22286
sS'gon'
p4781
I129581
sS'driving'
p4782
I118540
sS'washed'
p4783
I60140
sS'scrapping'
p4784
I120159
sS'William'
p4785
I17121
sS'Icahn'
p4786
I18278
sS'banning'
p4787
I88554
sS'got'
p4788
I133389
sS'independence'
p4789
I108270
sS'AFL'
p4790
I56625
sS'eternal'
p4791
I124107
sS'free'
p4792
I126845
sS'streamline'
p4793
I120407
sS'wanted'
p4794
I131617
sS'Studies'
p4795
I115806
sS'workers\xe2\x80\x99'
p4796
I101464
sS'pulpits'
p4797
I109212
sS'correctness'
p4798
I87515
sS'days'
p4799
I133095
sS'priorities'
p4800
I115873
sS'heck'
p4801
I28109
sS'hopeless'
p4802
I77827
sS'cooperating'
p4803
I113116
sS'recite'
p4804
I109875
sS'already'
p4805
I131909
sS'Working'
p4806
I124475
sS'primary'
p4807
I102632
sS'hearing'
p4808
I117457
sS'sharpest'
p4809
I44885
sS'toy'
p4810
I22749
sS'Congress'
p4811
I123184
sS'tensions'
p4812
I121594
sS'top'
p4813
I127965
sS'fiction'
p4814
I127242
sS'ballistic'
p4815
I123543
sS'too'
p4816
I124884
sS'percentage'
p4817
I95823
sS'Baltimores'
p4818
I76653
sS'unbroken'
p4819
I131075
sS'ceiling'
p4820
I28116
sS'murder'
p4821
I115297
sS'motors-8/'
p4822
I118167
sS'tool'
p4823
I120739
sS'serve'
p4824
I124469
sS'took'
p4825
I132569
sS'negotiating'
p4826
I125331
sS'shortly'
p4827
I61011
sS'preposterous'
p4828
I127286
sS'colleagues--'
p4829
I25637
sS'frankly'
p4830
I108093
sS'nominate'
p4831
I23487
sS'immigrants'
p4832
I117466
sS'zero'
p4833
I128548
sS'fashion'
p4834
I83314
sS'ran'
p4835
I131639
sS'talking'
p4836
I128392
sS'advising'
p4837
I120570
sS'regulate'
p4838
I49696
sS'relatively'
p4839
I70597
sS'1965'
p4840
I116118
sS'-'
p4841
I133353
sS'thorough'
p4842
I123931
sS'contact'
p4843
I87280
sS'laughed'
p4844
I64318
sS'though'
p4845
I128263
sS'pinpricks'
p4846
I21621
sS'enablers'
p4847
I126910
sS'plenty'
p4848
I68471
sS'Watergate'
p4849
I132712
sS'Gawker'
p4850
I77878
sS'devastating'
p4851
I108367
sS'flow'
p4852
I110209
sS'treaty'
p4853
I64587
sS'reputation'
p4854
I126976
sS'enterprise'
p4855
I130218
sS'phenomenally'
p4856
I86464
sS'Sarah'
p4857
I110952
sS'sanctuary'
p4858
I113702
sS'contacted'
p4859
I87300
sS'random'
p4860
I47183
sS'radio'
p4861
I31838
sS'solutions'
p4862
I49275
sS'earth'
p4863
I78312
sS'Big'
p4864
I105601
sS'announce'
p4865
I81962
sS'548'
p4866
I122926
sS'borrowed'
p4867
I28717
sS'hostility'
p4868
I124917
sS'watch'
p4869
I119901
sS'criticized'
p4870
I27314
sS'shutting'
p4871
I31230
sS'despite'
p4872
I117417
sS'report'
p4873
I122224
sS'considerate'
p4874
I107799
sS'countries'
p4875
I131407
sS'twice'
p4876
I87312
sS'shots'
p4877
I95530
sS'isolation'
p4878
I12586
sS'automatic'
p4879
I122953
sS'Pew'
p4880
I114737
sS'businessperson'
p4881
I55585
sS'corrupt'
p4882
I132744
sS'capacity'
p4883
I26765
sS'interviewing'
p4884
I83328
sS'finger'
p4885
I79667
sS'hopefully'
p4886
I125842
sS'approach'
p4887
I3981
sS'Tree'
p4888
I32508
sS'however'
p4889
I117224
sS'boss'
p4890
I99544
sS'33,000'
p4891
I127076
sS'news'
p4892
I112069
sS'Podesta'
p4893
I73736
sS'improve'
p4894
I123779
sS'Among'
p4895
I112253
sS'protect'
p4896
I130865
sS'fault'
p4897
I132558
sS'facet'
p4898
I43496
sS'games'
p4899
I99830
sS'faces'
p4900
I105948
sS'expense'
p4901
I125997
sS'smuggled'
p4902
I117291
sS'epidemic'
p4903
I7107
sS'trust'
p4904
I94733
sS'bureaucratic'
p4905
I50242
sS'conference'
p4906
I129823
sS'Richard'
p4907
I38486
sS'Southern'
p4908
I34353
sS'been'
p4909
I133297
sS'quickly'
p4910
I131472
sS'beneficiary'
p4911
I73483
sS'drugs'
p4912
I121346
sS'republicans'
p4913
I11979
sS'900'
p4914
I99810
sS'catch'
p4915
I112535
sS'Trans'
p4916
I120835
sS'Secretary'
p4917
I123364
sS'Deputy'
p4918
I113341
sS'censors'
p4919
I109660
sS'teachers'
p4920
I118872
sS'stopping'
p4921
I108349
sS'procedure'
p4922
I114826
sS'expenses'
p4923
I119821
sS'Bush'
p4924
I84432
sS'experts'
p4925
I130037
sS'experience'
p4926
I133142
sS'misspoke'
p4927
I4156
sS'Tell'
p4928
I88468
sS'Schultz'
p4929
I60077
sS'complex'
p4930
I116658
sS'advances'
p4931
I127818
sS'several'
p4932
I121848
sS'pick'
p4933
I109524
sS'action'
p4934
I120953
sS'workings'
p4935
I62848
sS'Root'
p4936
I110881
sS'cycle'
p4937
I117001
sS'mentioning'
p4938
I46467
sS'Patrol'
p4939
I117445
sS'LGBTQ'
p4940
I106850
sS'McConnell'
p4941
I23611
sS'savings'
p4942
I123078
sS'greatest'
p4943
I129205
sS'detained'
p4944
I113098
sS'mother'
p4945
I109494
sS'hearts'
p4946
I100880
sS'dads'
p4947
I118882
sS'seasonal'
p4948
I27255
sS'After'
p4949
I132307
sS'graded'
p4950
I33951
sS'proposed'
p4951
I120683
sS'unemployment'
p4952
I121208
sS'Lots'
p4953
I74233
sS'proposes'
p4954
I107188
sS'thumbs'
p4955
I129698
sS'Flint'
p4956
I126338
sS'technological'
p4957
I124037
sS'humanity'
p4958
I13872
sS'gave'
p4959
I120578
sS'James'
p4960
I92991
sS'breaks'
p4961
I76095
sS'gunned'
p4962
I106376
sS'judge'
p4963
I109518
sS'vetting'
p4964
I114825
sS'apart'
p4965
I106736
sS'59'
p4966
I116110
sS'58'
p4967
I95236
sS'dishonest'
p4968
I131277
sS'50'
p4969
I116702
sS'53'
p4970
I100401
sS'specific'
p4971
I89879
sS'informative'
p4972
I102867
sS'offices'
p4973
I112247
sS'arbitrary'
p4974
I19774
sS'Again'
p4975
I128737
sS'incumbents'
p4976
I113254
sS'successfully'
p4977
I110698
sS'proudly'
p4978
I121860
sS'Much'
p4979
I73332
sS'election'
p4980
I131232
sS'escape'
p4981
I107896
sS'contests'
p4982
I47256
sS'Life'
p4983
I32510
sS'Cuba'
p4984
I45776
sS'establish'
p4985
I119072
sS'everything'
p4986
I126970
sS'Hi'
p4987
I97036
sS'Cubs'
p4988
I83127
sS'Chris'
p4989
I125237
sS'He'
p4990
I131546
sS'core'
p4991
I121581
sS'deleted'
p4992
I60561
sS'disappeared'
p4993
I103041
sS'deletes'
p4994
I105921
sS'chapter'
p4995
I101936
sS'Madison'
p4996
I56571
sS'attacks'
p4997
I130561
sS'choke'
p4998
I33754
sS'dinner'
p4999
I133171
sS'plus'
p5000
I122559
sS'efforts'
p5001
I129209
sS'civil'
p5002
I132138
sS'uncontrolled'
p5003
I111958
sS'Terrific'
p5004
I100514
sS'rely'
p5005
I123991
sS'why'
p5006
I132551
sS'stuck'
p5007
I93145
sS'fought'
p5008
I131980
sS'Well--'
p5009
I26130
sS'Kudlow'
p5010
I36129
sS'purposely'
p5011
I51178
sS'head'
p5012
I108991
sS'thing.\xe2\x80\x99'
p5013
I81482
sS'attempted'
p5014
I115296
sS'heinous'
p5015
I115259
sS'heat'
p5016
I128632
sS'hear'
p5017
I127684
sS'solar'
p5018
I66886
sS'removed'
p5019
I113387
sS'portions'
p5020
I122457
sS'Commission'
p5021
I132713
sS'bids'
p5022
I43415
sS'bargain'
p5023
I69659
sS'ruined'
p5024
I106732
sS'retire'
p5025
I123157
sS'simplifying'
p5026
I119555
sS'Carson'
p5027
I125337
sS'believable'
p5028
I107154
sS'check'
p5029
I118682
sS'regime'
p5030
I106937
sS'looked'
p5031
I128189
sS'Pharis'
p5032
I111167
sS'no'
p5033
I132087
sS'na'
p5034
I129582
sS'commercials'
p5035
I63075
sS'when'
p5036
I133125
sS'setting'
p5037
I132360
sS'stagnant'
p5038
I70576
sS'soundly'
p5039
I41969
sS'subsidize'
p5040
I33568
sS'permitting'
p5041
I120409
sS'waterways'
p5042
I122502
sS'corporations'
p5043
I126318
sS'apologizing'
p5044
I60124
sS'longer'
p5045
I126724
sS'bullet'
p5046
I82653
sS'American'
p5047
I131421
sS'serious'
p5048
I93884
sS'neighbors'
p5049
I32654
sS'that\xe2\x80\x93'
p5050
I81267
sS'focus'
p5051
I117316
sS'leads'
p5052
I14443
sS'Today'
p5053
I122836
sS'row'
p5054
I97569
sS'Dad'
p5055
I35539
sS'1940'
p5056
I122724
sS'1947'
p5057
I122749
sS'passage'
p5058
I113332
sS'environment'
p5059
I106530
sS'charge'
p5060
I115855
sS'promoting'
p5061
I121585
sS'Day'
p5062
I131426
sS'advantage'
p5063
I131897
sS'Countries'
p5064
I114438
sS'sloppy'
p5065
I74613
sS'Tractor'
p5066
I18769
sS'oftentimes'
p5067
I43433
sS'clouds'
p5068
I130247
sS'Secure'
p5069
I113133
sS'policeman'
p5070
I11510
sS'brother'
p5071
I125039
sS'\xe2\x80\x99ll'
p5072
I133104
sS'standards'
p5073
I111131
sS'quick'
p5074
I80015
sS'says'
p5075
I132773
sS'tougher'
p5076
I81544
sS'trend'
p5077
I41674
sS'obsolete'
p5078
I107021
sS'cyber'
p5079
I123981
sS'invaded'
p5080
I103347
sS'voucher'
p5081
I111295
sS'--there'
p5082
I23927
sS'chicken'
p5083
I69280
sS'Tonight'
p5084
I107723
sS'stands'
p5085
I107947
sS'debate'
p5086
I132126
sS'tarmac'
p5087
I72975
sS'goes'
p5088
I115797
sS'Applicants'
p5089
I114787
sS'Nov.'
p5090
I131436
sS'1237'
p5091
I94070
sS'water'
p5092
I118228
sS'Jan.'
p5093
I131038
sS'baseball'
p5094
I83156
sS'groups'
p5095
I72079
sS'['
p5096
I121360
sS'guilty'
p5097
I129860
sS'shootings'
p5098
I104491
sS'Justice'
p5099
I130852
sS'problematic'
p5100
I128370
sS'1st'
p5101
I52816
sS'crisis'
p5102
I122463
sS'Sanders'
p5103
I126516
sS'handled'
p5104
I96141
sS'upheld'
p5105
I67691
sS'memory'
p5106
I117194
sS'today'
p5107
I133371
sS'smeared'
p5108
I130577
sS'endorsing'
p5109
I69614
sS'riot'
p5110
I76743
sS'These'
p5111
I132342
sS'altar'
p5112
I104719
sS'cases'
p5113
I120890
sS'pre-'
p5114
I29979
sS'thousands'
p5115
I129264
sS'trump'
p5116
I22504
sS'figure'
p5117
I123341
sS'Integration'
p5118
I116200
sS'critic'
p5119
I33600
sS'counting'
p5120
I102709
sS'osmosis'
p5121
I65777
sS'secured'
p5122
I68623
sS'1'
p5123
I131039
sS'vital'
p5124
I132836
sS'cardinal'
p5125
I133236
sS'endorsement'
p5126
I131613
sS'ensure'
p5127
I124063
sS'speaks'
p5128
I47223
sS'homicide'
p5129
I111765
sS'unbelievable'
p5130
I125438
sS'huge'
p5131
I90285
sS'Durden'
p5132
I107319
sS'crashed'
p5133
I120644
sS'eighth'
p5134
I116456
sS'unbelievably'
p5135
I81415
sS'Coal'
p5136
I66915
sS'Romney'
p5137
I94772
sS'inform'
p5138
I65031
sS'representation'
p5139
I85354
sS'exclusive'
p5140
I109578
sS'C.I.A.'
p5141
I24326
sS'KELLY'
p5142
I39996
sS'White'
p5143
I125927
sS'blocked'
p5144
I113833
sS'offers'
p5145
I118569
sS'Moving'
p5146
I112970
sS'KELLy'
p5147
I39978
sS'Using'
p5148
I123355
sS'Make'
p5149
I124252
sS'happened'
p5150
I129645
sS'moms'
p5151
I118880
sS'devastated'
p5152
I46548
sS'TPP'
p5153
I115990
sS'feature'
p5154
I107979
sS'term'
p5155
I123379
sS'name'
p5156
I113485
sS'debating'
p5157
I112164
sS'nodding'
p5158
I99125
sS'Kenya'
p5159
I53842
sS'realism'
p5160
I121694
sS'Airbus'
p5161
I75962
sS'rethinking'
p5162
I121602
sS'plans'
p5163
I122866
sS'ultimately'
p5164
I45050
sS'that,\xe2\x80\x99'
p5165
I81774
sS'defund'
p5166
I29890
sS'factors'
p5167
I33775
sS'profit'
p5168
I131386
sS'privatizations'
p5169
I93848
sS'factory'
p5170
I105727
sS'advice'
p5171
I24323
sS'she'
p5172
I132966
sS'--the'
p5173
I24163
sS'theory'
p5174
I80575
sS'Security'
p5175
I114332
sS'100%'
p5176
I11345
sS'impose'
p5177
I22446
sS'turn'
p5178
I130019
sS'place'
p5179
I131912
sS'deceived'
p5180
I7619
sS'suspend'
p5181
I114171
sS'Faris'
p5182
I93306
sS'awfully'
p5183
I70060
sS'simplified'
p5184
I108510
sS'engineer'
p5185
I83258
sS'given'
p5186
I132924
sS'necessarily'
p5187
I37107
sS'trillion'
p5188
I130423
sS'Wharton'
p5189
I37474
sS'cooling'
p5190
I85406
sS'lobbyists'
p5191
I126069
sS'convention'
p5192
I104383
sS'Such'
p5193
I75128
sS'gives'
p5194
I132526
sS'hug'
p5195
I22259
sS'releases'
p5196
I127182
sS'hasn\xe2\x80\x99t'
p5197
I97949
sS'season'
p5198
I131870
sS'hurtful'
p5199
I130564
sS'huh'
p5200
I16809
sS'cops'
p5201
I118868
sS'population'
p5202
I116260
sS'wide'
p5203
I123105
sS'Love'
p5204
I109732
sS'unfortunately'
p5205
I77722
sS'require'
p5206
I121820
sS'officials'
p5207
I123868
sS'Lawful'
p5208
I107647
sS'cards'
p5209
I89838
sS'poisoning'
p5210
I68464
sS'you--'
p5211
I24769
sS'oath'
p5212
I107989
sS'pre'
p5213
I105148
sS'pro'
p5214
I121231
sS'Congratulations'
p5215
I131534
sS'suspense'
p5216
I72934
sS'rent'
p5217
I91967
sS'sells'
p5218
I28661
sS'any'
p5219
I131511
sS'16,500-plus'
p5220
I68340
sS'prosperity'
p5221
I131251
sS'let\xdb\xaas'
p5222
I40247
sS'ideas'
p5223
I51779
sS'primaries'
p5224
I98325
sS'sure'
p5225
I132779
sS'multiple'
p5226
I111186
sS'GOP'
p5227
I101952
sS'picture'
p5228
I127566
sS'considered'
p5229
I123426
sS'NRA'
p5230
I67840
sS'proud'
p5231
I132031
sS'tweet'
p5232
I97402
sS'uncle'
p5233
I83237
sS'vetted'
p5234
I116559
sS'cheat'
p5235
I107952
sS'reinvigorate'
p5236
I76967
sS'allegations'
p5237
I128718
sS'What'
p5238
I132731
sS'Research'
p5239
I123333
sS'hack'
p5240
I122169
sS'favor'
p5241
I64420
sS'Saddam'
p5242
I82854
sS'state'
p5243
I128508
sS'Lyndon'
p5244
I109219
sS'crime'
p5245
I130894
sS'believing'
p5246
I109284
sS'Louis'
p5247
I76263
sS'begging'
p5248
I19436
sS'hedge'
p5249
I102896
sS'reveal'
p5250
I94640
sS'jokes'
p5251
I132922
sS'barbaric'
p5252
I114747
sS'embassy'
p5253
I45816
sS'bought'
p5254
I75958
sS'discussing'
p5255
I102845
sS'ignored'
p5256
I115021
sS'Colonel'
p5257
I38515
sS'violated'
p5258
I73248
sS'college'
p5259
I110956
sS'parking'
p5260
I25357
sS'1929'
p5261
I66346
sS'violates'
p5262
I115851
sS'fails'
p5263
I104301
sS'federal'
p5264
I123925
sS'review'
p5265
I123932
sS'Univision'
p5266
I29180
sS'weapons'
p5267
I122897
sS'outside'
p5268
I131016
sS'Center--'
p5269
I24305
sS'caucus'
p5270
I102633
sS'U.S.'
p5271
I126436
sS'Democrat'
p5272
I117777
sS'conservativism'
p5273
I23571
sS'cities'
p5274
I131052
sS'come'
p5275
I133391
sS'--any'
p5276
I25634
sS'superstar'
p5277
I125495
sS'missions'
p5278
I123515
sS'stupidest'
p5279
I73399
sS'gimmicks'
p5280
I123091
sS'quiet'
p5281
I27504
sS'contract'
p5282
I55678
sS"'Cause"
p5283
I24786
sS'senator'
p5284
I125253
sS'deported'
p5285
I128886
sS'duty'
p5286
I121640
sS'Guess'
p5287
I66199
sS'destabilized'
p5288
I103350
sS'color'
p5289
I127565
sS'period'
p5290
I131944
sS'60'
p5291
I79825
sS'61'
p5292
I66599
sS'62'
p5293
I115809
sS'pundits'
p5294
I130716
sS'65'
p5295
I40579
sS'66'
p5296
I83035
sS'disproportionately'
p5297
I119696
sS'68'
p5298
I91480
sS'poll'
p5299
I128647
sS'50%'
p5300
I104526
sS'But'
p5301
I133109
sS'eyewitnesses'
p5302
I128011
sS'peaceful'
p5303
I121559
sS'505'
p5304
I44362
sS'hardly'
p5305
I55134
sS'500'
p5306
I119770
sS'engine'
p5307
I70422
sS'direction'
p5308
I113206
sS'robbed'
p5309
I130917
sS'Together'
p5310
I124160
sS'careful'
p5311
I96836
sS'spirit'
p5312
I100972
sS'pilot'
p5313
I116642
sS'case'
p5314
I132538
sS'libelous'
p5315
I80349
sS'myself'
p5316
I129971
sS'cash'
p5317
I128815
sS'Slow'
p5318
I3991
sS'Politicians'
p5319
I118791
sS'braggadocious'
p5320
I2241
sS'punched'
p5321
I79432
sS'author'
p5322
I128026
sS'trip'
p5323
I95847
sS'Excuse'
p5324
I87304
sS'buys'
p5325
I28653
sS'constructed'
p5326
I14812
sS'events'
p5327
I132343
sS'week'
p5328
I104373
sS'booths'
p5329
I84672
sS'applaud'
p5330
I133186
sS'him--'
p5331
I25010
sS'weed'
p5332
I23299
sS'director'
p5333
I105971
sS'submarines'
p5334
I123472
sS'footprint'
p5335
I45383
sS'changing'
p5336
I37530
sS'weakened'
p5337
I21947
sS'Made'
p5338
I66742
sS'swatches'
p5339
I74331
sS'Is'
p5340
I132602
sS'It'
p5341
I132281
sS'without'
p5342
I132989
sS'relief'
p5343
I119626
sS'In'
p5344
I132329
sS'model'
p5345
I121052
sS'If'
p5346
I130339
sS'United'
p5347
I129486
sS'unconstitutional'
p5348
I113750
sS'ninth'
p5349
I68143
sS'violent'
p5350
I117471
sS'cease'
p5351
I74357
sS'captured'
p5352
I82949
sS'blow'
p5353
I88492
sS'announcement'
p5354
I101192
sS'Jobs'
p5355
I124233
sS'seems'
p5356
I96634
sS'except'
p5357
I112211
sS'Missile'
p5358
I123680
sS'engulfed'
p5359
I105274
sS'disrupt'
p5360
I123984
sS'Countless'
p5361
I110834
sS'Vote--'
p5362
I25595
sS'Many'
p5363
I130030
sS'papers'
p5364
I71795
sS'inflation'
p5365
I122935
sS'Shelton'
p5366
I59705
sS'Came'
p5367
I8434
sS'reduces'
p5368
I120094
sS'donations'
p5369
I66596
sS'Something'
p5370
I102776
sS'tower'
p5371
I25390
sS'reduced'
p5372
I120505
sS'deduct'
p5373
I119670
sS'Army'
p5374
I123394
sS'West'
p5375
I122530
sS'Since'
p5376
I113065
sS'competition'
p5377
I103441
sS'respect'
p5378
I128592
sS'International'
p5379
I120972
sS'Listen'
p5380
I6545
sS'provided'
p5381
I114189
sS'overstay'
p5382
I107708
sS'teachings'
p5383
I92841
sS'legal'
p5384
I117022
sS'moon'
p5385
I119051
sS'Extreme'
p5386
I114381
sS'declaratory'
p5387
I16282
sS'Ivanka'
p5388
I125067
sS'on'
p5389
I133252
sS'oh'
p5390
I129515
sS'of'
p5391
I133174
sS'discussed'
p5392
I110234
sS'Brazile'
p5393
I132934
sS'stand'
p5394
I133256
sS'disintegrate'
p5395
I13490
sS'tariffs'
p5396
I120860
sS'or'
p5397
I132872
sS'op'
p5398
I128161
sS'ladies'
p5399
I128455
sS'wasteful'
p5400
I108999
sS'communication'
p5401
I66316
sS'garb'
p5402
I59927
sS'accounts'
p5403
I119775
sS'determine'
p5404
I126840
sS'lawmaking'
p5405
I113978
sS'Nabisco'
p5406
I90815
sS'there'
p5407
I133088
sS'disposed'
p5408
I88867
sS'racist'
p5409
I126935
sS'Assad'
p5410
I82867
sS'condone'
p5411
I79651
sS'Pipeline'
p5412
I20622
sS'Remember'
p5413
I129664
sS'regard'
p5414
I124980
sS'promote'
p5415
I121861
sS'faster'
p5416
I19766
sS'Chadwick'
p5417
I114987
sS'grasp'
p5418
I104191
sS'FBI'
p5419
I132643
sS'strongly'
p5420
I130014
sS'Homeland'
p5421
I114331
sS'politics'
p5422
I132726
sS'spends'
p5423
I25998
sS'incorrect'
p5424
I78632
sS'4.4'
p5425
I121037
sS'onerous'
p5426
I50126
sS'4.0'
p5427
I110959
sS'deserve'
p5428
I129411
sS'5'
p5429
I123261
sS'announcements'
p5430
I64966
sS'Vladimir'
p5431
I41601
sS'separate'
p5432
I70362
sS'symbol'
p5433
I105051
sS'ICE'
p5434
I114056
sS'includes'
p5435
I127071
sS'bullets'
p5436
I40925
sS'CNN'
p5437
I132416
sS'calls'
p5438
I132634
sS'wife'
p5439
I132522
sS'invest'
p5440
I123977
sS'all'
p5441
I133309
sS'lack'
p5442
I117419
sS'Parents'
p5443
I119722
sS'follow'
p5444
I133315
sS'settlement'
p5445
I44869
sS'decisions'
p5446
I126292
sS'apartment'
p5447
I88742
sS'catastrophe'
p5448
I73765
sS'lining'
p5449
I105610
sS'H&R'
p5450
I6033
sS'removal'
p5451
I115876
sS'program'
p5452
I113138
sS'lawmakers'
p5453
I112279
sS'Christians'
p5454
I38108
sS'activities'
p5455
I120926
sS'woman'
p5456
I132297
sS'worse'
p5457
I128973
sS'far'
p5458
I129887
sS'fat'
p5459
I50545
sS'fabricated'
p5460
I127616
sS'sons'
p5461
I11810
sS'worst'
p5462
I108084
sS'awful'
p5463
I107576
sS'treating'
p5464
I18196
sS'Carly'
p5465
I11884
sS'list'
p5466
I114351
sS'occurs'
p5467
I104156
sS'liars'
p5468
I127981
sS'ten'
p5469
I121179
sS'rate'
p5470
I128438
sS'East'
p5471
I123645
sS'sue'
p5472
I23194
sS'brief'
p5473
I78589
sS'booing'
p5474
I13735
sS'version'
p5475
I82772
sS'attitudes'
p5476
I113249
sS'guns'
p5477
I110215
sS'unquestioned'
p5478
I122681
sS'womb'
p5479
I68140
sS'unprofessional'
p5480
I14625
sS'Kasich'
p5481
I88247
sS'supposedly'
p5482
I127622
sS'rakes'
p5483
I106064
sS'tragedy'
p5484
I43007
sS'extraordinary'
p5485
I102349
sS'Absolutely'
p5486
I96242
sS'allows'
p5487
I132364
sS'options'
p5488
I117210
sS'disposition'
p5489
I117172
sS'Sheriff'
p5490
I113342
sS'suddenly'
p5491
I131634
sS'Too'
p5492
I118959
sS'faint'
p5493
I84273
sS'Lives'
p5494
I106731
sS'Immediately'
p5495
I121793
sS'unthinkable'
p5496
I76488
sS'minor'
p5497
I106000
sS'flat'
p5498
I24740
sS'knows'
p5499
I133007
sS'bumped'
p5500
I132154
sS'grabbing'
p5501
I87710
sS'protestor'
p5502
I78809
sS'flag'
p5503
I124183
sS'basically'
p5504
I93637
sS'known'
p5505
I132243
sS'glad'
p5506
I110017
sS'debates'
p5507
I70805
sS'policemen'
p5508
I75256
sS'Let--'
p5509
I26183
sS'embarrassing'
p5510
I95934
sS'Pretty'
p5511
I132715
sS'conspire'
p5512
I126563
sS'protects'
p5513
I127024
sS'airplane'
p5514
I129494
sS'Benghazi'
p5515
I66089
sS'court'
p5516
I97377
sS'goal'
p5517
I123716
sS'rather'
p5518
I124417
sS'breaking'
p5519
I111947
sS'Holtz'
p5520
I99652
sS'extinguished'
p5521
I122391
sS'okay'
p5522
I132858
sS'existential'
p5523
I126108
sS'Everyone'
p5524
I91186
sS'perhaps'
p5525
I131742
sS'shore'
p5526
I68560
sS'Sean'
p5527
I56440
sS'Relationships'
p5528
I124919
sS'developed'
p5529
I70650
sS'Nikki'
p5530
I16772
sS'mission'
p5531
I123736
sS'Same'
p5532
I79672
sS'disabled'
p5533
I72338
sS'scientist'
p5534
I83256
sS'avenue'
p5535
I44802
sS'developer'
p5536
I8284
sS'disagreed'
p5537
I74868
sS'unleashing'
p5538
I123325
sS'Marco'
p5539
I47140
sS'March'
p5540
I37718
sS'disagrees'
p5541
I75135
sS'might'
p5542
I100278
sS'belligerent'
p5543
I122082
sS'return'
p5544
I126391
sS'sucking'
p5545
I20122
sS'predator'
p5546
I53234
sS'number'
p5547
I132970
sS'communities'
p5548
I130889
sS'hunted'
p5549
I82036
sS'bigger'
p5550
I109306
sS'impressive'
p5551
I131783
sS'level'
p5552
I122702
sS'difficult'
p5553
I118751
sS'friendship'
p5554
I110260
sS'weighs'
p5555
I54912
sS'weight'
p5556
I75031
sS'needless'
p5557
I120127
sS'generation'
p5558
I122797
sS'expect'
p5559
I124867
sS'More'
p5560
I133222
sS'Samuel'
p5561
I29645
sS'health'
p5562
I75112
sS'induced'
p5563
I121078
sS'forgive'
p5564
I7616
sS'tractors'
p5565
I18779
sS'cookie'
p5566
I79949
sS'execute'
p5567
I123513
sS'sidewalk'
p5568
I31163
sS'Block'
p5569
I6034
sS'thrown'
p5570
I127131
sS'People'
p5571
I130603
sS'threat'
p5572
I130214
sS'consequence'
p5573
I116056
sS'dislikes'
p5574
I130724
sS'fallen'
p5575
I73840
sS'Mendoza'
p5576
I107316
sS'feel'
p5577
I130012
sS'radical'
p5578
I129255
sS'Hugh'
p5579
I45185
sS'traveled'
p5580
I125221
sS'feet'
p5581
I90102
sS'sympathy'
p5582
I105850
sS'brave'
p5583
I129440
sS'slower'
p5584
I98048
sS'Sinai'
p5585
I122489
sS'story'
p5586
I130613
sS'"'
p5587
I125948
sS'leading'
p5588
I94367
sS'lobby'
p5589
I43377
sS'strategy'
p5590
I121950
sS'Larry'
p5591
I36128
sS'passed'
p5592
I100392
sS'store'
p5593
I131005
sS'hotel'
p5594
I90390
sS'Companies'
p5595
I48294
sS'king'
p5596
I22455
sS'kind'
p5597
I131682
sS'double'
p5598
I124699
sS'outrageous'
p5599
I108352
sS'illegals'
p5600
I84616
sS'architect'
p5601
I61458
sS'risks'
p5602
I85526
sS'insulted'
p5603
I17142
sS'Oliver'
p5604
I113362
sS'skyscrapers'
p5605
I121456
sS'strengthen'
p5606
I115705
sS'well'
p5607
I131500
sS'depleted'
p5608
I121320
sS'cognizant'
p5609
I76399
sS'Germany'
p5610
I123294
sS'the--'
p5611
I24455
sS'added'
p5612
I127941
sS'measures'
p5613
I119858
sS'reach'
p5614
I124896
sS'subsidy'
p5615
I120897
sS'75'
p5616
I35313
sS'73'
p5617
I55802
sS'71'
p5618
I58552
sS'70'
p5619
I75050
sS'nothing'
p5620
I129050
sS'prestige'
p5621
I125992
sS'measured'
p5622
I116258
sS'windows'
p5623
I88939
sS'devalue'
p5624
I35695
sS'liberate'
p5625
I129153
sS'institutions'
p5626
I129802
sS'lying'
p5627
I71806
sS'jiggering'
p5628
I66832
sS'shares'
p5629
I121749
sS'uniform'
p5630
I124105
sS'costing'
p5631
I108587
sS'aggravate'
p5632
I22514
sS'penalty'
p5633
I90295
sS'unilaterally'
p5634
I120022
sS'his'
p5635
I131927
sS'publicity'
p5636
I83541
sS'invoke'
p5637
I6607
sS'5,000'
p5638
I113570
sS'longest'
p5639
I46093
sS'Both'
p5640
I113173
sS'saluting'
p5641
I124180
sS'--tremendous'
p5642
I24790
sS'him'
p5643
I133144
sS'Olympic'
p5644
I99823
sS'appeal'
p5645
I52740
sS'activity'
p5646
I127037
sS'wrote'
p5647
I128274
sS'art'
p5648
I123532
sS'dump'
p5649
I90896
sS'Removing'
p5650
I123196
sS'defense'
p5651
I123735
sS'dumb'
p5652
I90901
sS'are'
p5653
I132409
sS'2.2'
p5654
I3222
sS'2.1'
p5655
I119257
sS'heaped'
p5656
I118812
sS'arm'
p5657
I87831
sS'2.5'
p5658
I120281
sS'threats'
p5659
I114125
sS'unions'
p5660
I42538
sS'various'
p5661
I97805
sS'numerous'
p5662
I128225
sS'corruption'
p5663
I128998
sS'profiling'
p5664
I88818
sS'recently'
p5665
I128897
sS'creating'
p5666
I131447
sS'couldn\xdb\xaat'
p5667
I40390
sS'Could'
p5668
I84497
sS'sole'
p5669
I109576
sS'outfit'
p5670
I78816
sS'I\xdb\xaam'
p5671
I41789
sS'betrayed'
p5672
I131366
sS'relying'
p5673
I114136
sS'I\xdb\xaad'
p5674
I41595
sS'license'
p5675
I59755
sS'Steaks'
p5676
I35916
sS'became'
p5677
I88544
sS'B-52s'
p5678
I57054
sS'flies'
p5679
I38343
sS'reasons'
p5680
I130730
sS'sweet'
p5681
I1289
sS'dudes'
p5682
I46604
sS'improper'
p5683
I123107
sS'village'
p5684
I132952
sS'incomes'
p5685
I121509
sS'political'
p5686
I130036
sS'due'
p5687
I8994
sS'dug'
p5688
I119034
sS'whom'
p5689
I74669
sS'reduction'
p5690
I122941
sS'Plan'
p5691
I120168
sS'1950s'
p5692
I27145
sS'firefighters'
p5693
I118874
sS'stratum'
p5694
I9954
sS'temperament'
p5695
I131751
sS'Jamiel'
p5696
I107470
sS'stolen'
p5697
I110751
sS'Deal'
p5698
I2233
sS'behavior'
p5699
I120898
sS'City'
p5700
I53462
sS'Tip'
p5701
I47627
sS'rip'
p5702
I125658
sS'rid'
p5703
I121267
sS'alliances'
p5704
I121618
sS'U.S.-based'
p5705
I119907
sS'horr-'
p5706
I81199
sS'Nation'
p5707
I124158
sS'daughters'
p5708
I11813
sS'higher'
p5709
I114290
sS'About'
p5710
I98444
sS'arrives'
p5711
I131433
sS'you\xdb\xaad'
p5712
I38852
sS'negotiate'
p5713
I118478
sS'flows'
p5714
I107174
sS'usually'
p5715
I110539
sS'arrived'
p5716
I110888
sS'Wounded'
p5717
I14044
sS'objecting'
p5718
I13754
sS'Carter'
p5719
I83674
sS'Almost'
p5720
I93752
sS'anybody'
p5721
I130094
sS'tarnish'
p5722
I62822
sS'historic'
p5723
I125730
sS'vulnerabilities'
p5724
I123968
sS'\xe2\x80\x99re'
p5725
I133369
sS'competitive'
p5726
I42514
sS'questions'
p5727
I126505
sS'vigilant'
p5728
I88405
sS'tamed'
p5729
I119030
sS'tables'
p5730
I113545
sS'workers'
p5731
I131351
sS'exclusively'
p5732
I1672
sS'governmental'
p5733
I55160
sS'Front'
p5734
I127560
sS'violations'
p5735
I108340
sS'complaint'
p5736
I68405
sS'Last'
p5737
I115580
sS'complains'
p5738
I63200
sS'advocate'
p5739
I109241
sS'unlimited'
p5740
I129250
sS'Air'
p5741
I123494
sS'Aid'
p5742
I76554
sS'Yemen'
p5743
I57265
sS'skeptical'
p5744
I87916
sS'commanders'
p5745
I96005
sS'unstable'
p5746
I122137
sS'essential'
p5747
I122501
sS'understood'
p5748
I58849
sS'modernize'
p5749
I123700
sS'3.9'
p5750
I51378
sS'Fire'
p5751
I101332
sS'innovation'
p5752
I118555
sS'Lucent'
p5753
I5730
sS'raided'
p5754
I126375
sS'refused'
p5755
I128249
sS'Command'
p5756
I123895
sS'refuses'
p5757
I114814
sS'Russia'
p5758
I122084
sS'vaccine'
p5759
I7276
sS'pipeline'
p5760
I21141
sS'cautious'
p5761
I98039
sS'firing'
p5762
I108136
sS'range'
p5763
I123601
sS'hatred'
p5764
I107240
sS'wanna'
p5765
I125631
sS'exceed'
p5766
I123113
sS'Approximately'
p5767
I115434
sS'Everything'
p5768
I118307
sS'impressed'
p5769
I3141
sS'whims'
p5770
I118642
sS'conceivably'
p5771
I89485
sS'question'
p5772
I132215
sS'fast'
p5773
I114284
sS'Every'
p5774
I124540
sS'sections'
p5775
I96200
sS'mistreatment'
p5776
I23046
sS'girlfriends'
p5777
I13208
sS'repeatedly'
p5778
I123653
sS'filed'
p5779
I50742
sS'raising'
p5780
I75141
sS'fulfilling'
p5781
I124489
sS"hasn't"
p5782
I92963
sS'gratifying'
p5783
I58237
sS'called'
p5784
I133354
sS'gunpoint'
p5785
I104978
sS'Attack'
p5786
I23793
sS'rally'
p5787
I110109
sS'Hewitt'
p5788
I6178
sS'independents'
p5789
I41888
sS'peace'
p5790
I131253
sS'backs'
p5791
I90484
sS'Personally'
p5792
I87216
sS'nice'
p5793
I132992
sS'financials'
p5794
I35597
sS'problems'
p5795
I132761
sS'helping'
p5796
I126570
sS'meaning'
p5797
I101316
sS'allowing'
p5798
I117204
sS'in--'
p5799
I24228
sS'vice'
p5800
I106234
sS'departments'
p5801
I123926
sS'Oakland'
p5802
I90681
sS'also--'
p5803
I24370
sS'once'
p5804
I124820
sS'issued'
p5805
I120065
sS'Bureau'
p5806
I39655
sS'gang'
p5807
I114121
sS'Department'
p5808
I129471
sS'contributions'
p5809
I110237
sS'issues'
p5810
I128492
sS'uphold'
p5811
I109044
sS'disposal'
p5812
I123321
sS'Joint'
p5813
I123917
sS'stable'
p5814
I122347
sS'include'
p5815
I115245
sS'and-'
p5816
I53450
sS'mainstream'
p5817
I128389
sS'wishes'
p5818
I51016
sS'redistribute'
p5819
I118302
sS'You\xdb\xaave'
p5820
I35610
sS'deals'
p5821
I130516
sS'LAX'
p5822
I51574
sS'dealt'
p5823
I95399
sS'relation'
p5824
I52866
sS'someday'
p5825
I89598
sS'smaller'
p5826
I123165
sS'Earned'
p5827
I119754
sS'malice'
p5828
I78517
sS'fold'
p5829
I121626
sS'39,000'
p5830
I60675
sS'plead'
p5831
I22317
sS'acid'
p5832
I122181
sS'makers'
p5833
I35707
sS'obey'
p5834
I9106
sS'reappointment'
p5835
I129613
sS'Regulations'
p5836
I120033
sS'waiting'
p5837
I113800
sS'capital'
p5838
I104457
sS'ammunition'
p5839
I13174
sS'Kingdom'
p5840
I129147
sS'chose'
p5841
I110721
sS'degree'
p5842
I39520
sS'pushing'
p5843
I88916
sS'Obviously'
p5844
I83977
sS'youngest'
p5845
I109421
sS'larger'
p5846
I119710
sS'leaving'
p5847
I130134
sS'CBS'
p5848
I132418
sS'Palm'
p5849
I72282
sS'writer'
p5850
I127713
sS'spy'
p5851
I38599
sS'Robert'
p5852
I125019
sS'shoved'
p5853
I37483
sS'deployed'
p5854
I126696
sS'Exit'
p5855
I84591
sS'cheerleader'
p5856
I77813
sS'apply'
p5857
I120941
sS'redo'
p5858
I34918
sS'corrupted'
p5859
I129754
sS'use'
p5860
I128177
sS'Indianapolis'
p5861
I48209
sS'from'
p5862
I132825
sS'few'
p5863
I128331
sS'sort'
p5864
I127462
sS'inclined'
p5865
I85305
sS'Chuck'
p5866
I85324
sS'cooperate'
p5867
I113717
sS'women'
p5868
I129781
sS'anywhere'
p5869
I124708
sS'Ronnebeck'
p5870
I110986
sS'proof'
p5871
I132498
sS'tap'
p5872
I118078
sS'120-day'
p5873
I27260
sS'tax'
p5874
I121039
sS'something'
p5875
I133219
sS'Party'
p5876
I104056
sS'rape'
p5877
I115294
sS'sir'
p5878
I99040
sS'united'
p5879
I124333
sS'sit'
p5880
I99290
sS'six'
p5881
I114165
sS'sidewalks'
p5882
I31048
sS'fortunate'
p5883
I15356
sS'make\xe2\x80\x99'
p5884
I81640
sS'instead'
p5885
I128883
sS'Assn'
p5886
I109115
sS'attend'
p5887
I102882
sS'bestsellers'
p5888
I2434
sS'abuse'
p5889
I132573
sS'aftereffect'
p5890
I97902
sS'light'
p5891
I132075
sS'interrupted'
p5892
I13377
sS'honestly'
p5893
I125705
sS'beauties'
p5894
I73666
sS'deprecating'
p5895
I131694
sS'interpreted'
p5896
I67596
sS'--And'
p5897
I23850
sS'130'
p5898
I40937
sS'looks'
p5899
I57350
sS'135'
p5900
I123115
sS'superior'
p5901
I103127
sS'ships'
p5902
I123719
sS'choose'
p5903
I116360
sS'covered'
p5904
I55711
sS'crowds'
p5905
I126656
sS'pending'
p5906
I40266
sS'Queens'
p5907
I54391
sS'violating'
p5908
I115477
sS'campaigned'
p5909
I86974
sS'practice'
p5910
I114748
sS'flew'
p5911
I122803
sS'negligent'
p5912
I105985
sS'Can'
p5913
I128070
sS'Murders'
p5914
I53500
sS'flee'
p5915
I126204
sS'fled'
p5916
I112930
sS'articles'
p5917
I89295
sS'profound'
p5918
I108502
sS'unpredictable'
p5919
I96247
sS'bills'
p5920
I123250
sS'Next'
p5921
I120840
sS'88'
p5922
I121670
sS'remove'
p5923
I123655
sS'Which'
p5924
I132936
sS'82'
p5925
I96876
sS'our'
p5926
I133351
sS'--what'
p5927
I26474
sS'85'
p5928
I40591
sS'category'
p5929
I28855
sS'respects'
p5930
I88377
sS'disarray'
p5931
I122063
sS'chaos'
p5932
I122510
sS'Nearly'
p5933
I104752
sS'pours'
p5934
I68447
sS'Indonesia'
p5935
I17428
sS'promptly'
p5936
I123247
sS'Hell'
p5937
I38771
sS'tenant'
p5938
I81502
sS'Alito'
p5939
I29646
sS'conversation'
p5940
I117269
sS'dispropor'
p5941
I89587
sS'plainly'
p5942
I104332
sS'Bundles'
p5943
I73996
sS'galvanized'
p5944
I22698
sS'Lemme'
p5945
I26291
sS'proposing'
p5946
I121571
sS'no,\xe2\x80\x99'
p5947
I75864
sS'North'
p5948
I126350
sS'overtime'
p5949
I132441
sS'nomination'
p5950
I133083
sS'priority'
p5951
I123883
sS'their'
p5952
I131601
sS'650'
p5953
I51396
sS'misunderstood'
p5954
I22959
sS'reversed'
p5955
I104421
sS'Ku'
p5956
I79023
sS'amnesties'
p5957
I113769
sS'hearings'
p5958
I129826
sS'boring'
p5959
I42713
sS'richer'
p5960
I82141
sS'1.5'
p5961
I10433
sS'1.6'
p5962
I47282
sS'1.7'
p5963
I128804
sS'1.1'
p5964
I119221
sS'clip'
p5965
I83481
sS'1.3'
p5966
I49872
sS'Veteran'
p5967
I122010
sS'1.8'
p5968
I121093
sS'afraid'
p5969
I52665
sS'agency'
p5970
I36100
sS'which'
p5971
I132954
sS'savagely'
p5972
I106809
sS'detainers'
p5973
I112976
sS'do--'
p5974
I25725
sS'combat'
p5975
I123427
sS'who'
p5976
I133190
sS'Mercedes'
p5977
I33072
sS'Abraham'
p5978
I62699
sS'class'
p5979
I126298
sS'deny'
p5980
I86165
sS'saddest'
p5981
I32834
sS'Benz'
p5982
I33074
sS'pipe'
p5983
I17756
sS'flux'
p5984
I93068
sS'Earth'
p5985
I75212
sS'gain'
p5986
I120869
sS'Everybody'
p5987
I96845
sS'agreed'
p5988
I45595
sS'brutalized'
p5989
I114329
sS'democrats'
p5990
I11976
sS'fear'
p5991
I110603
sS'filthy'
p5992
I27928
sS'agrees'
p5993
I96267
sS'litigation'
p5994
I45660
sS'candidates'
p5995
I132366
sS'lemme'
p5996
I26274
sS'Giuliani'
p5997
I125216
sS'local'
p5998
I130978
sS'prosecute'
p5999
I129636
sS'sued'
p6000
I54414
sS'topple'
p6001
I122129
sS'watching'
p6002
I130434
sS'plaintiff'
p6003
I39930
sS'ones'
p6004
I129042
sS'sues'
p6005
I23157
sS'words'
p6006
I130601
sS'burglary'
p6007
I111026
sS'penetrate'
p6008
I13030
sS'spur'
p6009
I124011
sS'ended'
p6010
I130970
sS'married'
p6011
I119805
sS'thrive'
p6012
I110730
sS'view'
p6013
I43550
sS'knowing'
p6014
I61961
sS'requirement'
p6015
I123275
sS'humiliation'
p6016
I105022
sS'merits'
p6017
I24486
sS'unfairly'
p6018
I131170
sS'closer'
p6019
I20190
sS'Bernardino'
p6020
I106773
sS'genius'
p6021
I23819
sS'closed'
p6022
I119580
sS'stories'
p6023
I129765
sS'speed'
p6024
I68950
sS'pants'
p6025
I25032
sS'ability'
p6026
I124546
sS'opening'
p6027
I103614
sS'joy'
p6028
I109355
sS'agencies'
p6029
I120064
sS'embarrassment'
p6030
I127545
sS'job'
p6031
I131527
sS'declining'
p6032
I118589
sS'commands'
p6033
I115005
sS'RNC'
p6034
I125586
sS'Rolls'
p6035
I8332
sS'disenfranchised'
p6036
I94132
sS'wall'
p6037
I121359
sS'walk'
p6038
I131015
sS'Finally'
p6039
I123314
sS'table'
p6040
I89841
sS'decent'
p6041
I110665
sS'outflow'
p6042
I121006
sS'agreements'
p6043
I120723
sS'sufficient'
p6044
I116285
sS'Credit'
p6045
I119757
sS'coordinated'
p6046
I127154
sS'last'
p6047
I132288
sS'present'
p6048
I121804
sS'Force'
p6049
I123495
sS'abandoned'
p6050
I118793
sS'unlike'
p6051
I114041
sS'will'
p6052
I133030
sS'depreciation'
p6053
I72367
sS'wild'
p6054
I128715
sS'lightweight'
p6055
I35162
sS'stadiums'
p6056
I46719
sS'privileges'
p6057
I103813
sS'member'
p6058
I111022
sS'England'
p6059
I115277
sS'unity'
p6060
I124143
sS'largest'
p6061
I131866
sS'units'
p6062
I101567
sS'gets'
p6063
I132206
sS'residing'
p6064
I111800
sS'Third'
p6065
I104913
sS'disagree'
p6066
I74858
sS'Reid'
p6067
I31634
sS'issuance'
p6068
I114173
sS'student'
p6069
I110962
sS'collar'
p6070
I94178
sS'warming'
p6071
I111672
sS'scaling'
p6072
I120015
sS'whole'
p6073
I126900
sS'incredible'
p6074
I125608
sS'fighting'
p6075
I133089
sS'States'
p6076
I129487
sS'catastrophically'
p6077
I70476
sS'gutted'
p6078
I113180
sS'excessive'
p6079
I23205
sS'heavily'
p6080
I123992
sS'half'
p6081
I130417
sS'obtain'
p6082
I117021
sS'recap'
p6083
I84243
sS'smears'
p6084
I131266
sS'Far'
p6085
I60978
sS'point'
p6086
I129762
sS'capabilities'
p6087
I123982
sS'book'
p6088
I127507
sS'cruisers'
p6089
I123675
sS'provisions'
p6090
I63789
sS'protesters'
p6091
I79845
sS'know'
p6092
I133036
sS'facial'
p6093
I87877
sS'press'
p6094
I129822
sS'countervailing'
p6095
I120942
sS'incredibly'
p6096
I129468
sS'helpful'
p6097
I85741
sS'Within'
p6098
I116205
sS'loses'
p6099
I10842
sS'Maria'
p6100
I19054
sS'490,000'
p6101
I123414
sS'5,600'
p6102
I10724
sS'because'
p6103
I132912
sS'tumble'
p6104
I131971
sS'scared'
p6105
I103209
sS'growth'
p6106
I124701
sS'113'
p6107
I111253
sS'Jonathan'
p6108
I61454
sS'118'
p6109
I75949
sS'focused'
p6110
I128489
sS'lead'
p6111
I118841
sS'14th'
p6112
I5516
sS'620,000'
p6113
I112045
sS'expensive'
p6114
I100406
sS'bosses'
p6115
I85904
sS'leader'
p6116
I113224
sS'basically\xe2\x80\x94'
p6117
I81257
sS'ripped'
p6118
I106735
sS'\xe2\x80\x99ve'
p6119
I133388
sS'murdered'
p6120
I111016
sS'Brothers'
p6121
I8119
sS'carried'
p6122
I63830
sS'extension'
p6123
I103225
sS'getting'
p6124
I133081
sS'Zero'
p6125
I112696
sS'swear'
p6126
I46860
sS'Americans'
p6127
I124046
sS'sweat'
p6128
I102083
sS'Really'
p6129
I114694
sS'own'
p6130
I131795
sS'owe'
p6131
I124278
sS'Rasmussen'
p6132
I128646
sS'weather'
p6133
I129568
sS'promise'
p6134
I125741
sS'lawful'
p6135
I117155
sS'brilliantly'
p6136
I54784
sS'convicted'
p6137
I115247
sS'nuke'
p6138
I89634
sS'kidding'
p6139
I132193
sS'Chiefs'
p6140
I123918
sS'intention'
p6141
I42846
sS'appointing'
p6142
I130844
sS'funds'
p6143
I123358
sS'Detroit'
p6144
I126336
sS'challenges'
p6145
I126926
sS'made'
p6146
I128890
sS'href="http://fortune.com/fortune500/general'
p6147
I118165
sS'whether'
p6148
I130277
sS'Ted'
p6149
I47389
sS'record'
p6150
I133215
sS'below'
p6151
I122847
sS'ruling'
p6152
I60652
sS'unfolding'
p6153
I105136
sS'horrific'
p6154
I114976
sS'meaningless'
p6155
I33202
sS'goodness'
p6156
I118735
sS'naming'
p6157
I96922
sS"'ll"
p6158
I131226
sS'deporting'
p6159
I58284
sS'Sessions'
p6160
I125279
sS'percent'
p6161
I126238
sS'Islamic'
p6162
I129256
sS'other'
p6163
I132372
sS'Five'
p6164
I53399
sS'sick'
p6165
I9374
sS'1290'
p6166
I91997
sS'Manufacturing'
p6167
I91210
sS'conclusion'
p6168
I54191
sS'illegally'
p6169
I117033
sS'kinds'
p6170
I18349
sS'accomplish'
p6171
I118395
sS'concur'
p6172
I92481
sS'Baltimore'
p6173
I106631
sS'Coach'
p6174
I99784
sS'ranks'
p6175
I119323
sS'races'
p6176
I124451
sS'ideological'
p6177
I121833
sS'representative'
p6178
I75535
s.